; ModuleID = 'test'
target datalayout = "e-n8:16:32:64-p0:64:64:64-p1:64:64:64"
target triple = "x86_64-unknown-unknown"

%struct.x86_config = type { i32, i64, i32, i32, i32 }
%struct.x86_regs = type { %union.x86_qword_reg, %union.x86_qword_reg, %union.x86_qword_reg, %union.x86_qword_reg, %union.x86_qword_reg, %union.x86_qword_reg, %union.x86_qword_reg, %union.x86_qword_reg, %union.x86_qword_reg, %union.x86_qword_reg, %union.x86_qword_reg, %union.x86_qword_reg, %union.x86_qword_reg, %union.x86_qword_reg, %union.x86_qword_reg, %union.x86_qword_reg, %union.x86_qword_reg, %union.x86_qword_reg, %union.x86_qword_reg, %union.x86_qword_reg, %union.x86_qword_reg, %union.x86_qword_reg, %union.x86_qword_reg, %union.x86_qword_reg }
%union.x86_qword_reg = type { i64 }

@config = private constant %struct.x86_config { i32 64, i64 8, i32 41, i32 44, i32 36 }

define void @frame_dummy(%struct.x86_regs*) !fcd.vaddr !0 !fcd.output !1 !fcd.recoverable !1 {
entry:
  %1 = getelementptr inbounds %struct.x86_regs, %struct.x86_regs* %0, i64 0, i32 9, i32 0
  %2 = load i64, i64* %1, align 8, !tbaa !2, !alias.scope !6
  %3 = getelementptr inbounds %struct.x86_regs, %struct.x86_regs* %0, i64 0, i32 8, i32 0
  %4 = load i64, i64* %3, align 8, !tbaa !2, !alias.scope !9
  %5 = add i64 %4, -8
  %6 = inttoptr i64 %5 to i64*
  store i64 %2, i64* %6, align 4, !fcd.prgmem !1
  store i64 %5, i64* %3, align 8, !tbaa !2, !alias.scope !14
  %7 = getelementptr inbounds %struct.x86_regs, %struct.x86_regs* %0, i64 0, i32 6, i32 0
  store i64 6295072, i64* %7, align 8, !tbaa !2, !alias.scope !17, !noalias !26
  %8 = load i64, i64* inttoptr (i64 6295072 to i64*), align 32, !fcd.prgmem !1
  %9 = icmp eq i64 %8, 0
  store i64 4195835, i64* %1, align 4
  %.pre29 = getelementptr inbounds %struct.x86_regs, %struct.x86_regs* %0, i64 0, i32 1, i32 0
  br i1 %9, label %"4005fb", label %"400600"

"400600":                                         ; preds = %entry
  store i64 0, i64* %.pre29, align 8, !tbaa !2, !alias.scope !29, !noalias !38
  store i64 4195850, i64* %1, align 4
  br label %"4005fb"

"4005fb":                                         ; preds = %entry, %"400600"
  %10 = getelementptr inbounds %struct.x86_regs, %struct.x86_regs* %0, i64 0, i32 5, i32 0
  %11 = getelementptr inbounds %struct.x86_regs, %struct.x86_regs* %0, i64 0, i32 7, i32 0
  %12 = load i64, i64* %11, align 8, !tbaa !2, !alias.scope !41, !noalias !48
  %13 = add i64 %4, -16
  %14 = inttoptr i64 %13 to i64*
  store i64 %12, i64* %14, align 4, !fcd.prgmem !1
  store i64 0, i64* %.pre29, align 8, !tbaa !2, !alias.scope !50, !noalias !57
  store i64 0, i64* %10, align 8, !tbaa !2, !alias.scope !59, !noalias !66
  %15 = load i64, i64* %6, align 4, !fcd.prgmem !1
  store i64 %4, i64* %3, align 8, !tbaa !2, !alias.scope !68
  store i64 %15, i64* %1, align 8, !tbaa !2, !alias.scope !73
  ret void

; uselistorder directives
  uselistorder i64 %4, { 1, 0, 2 }
  uselistorder i64* %3, { 0, 2, 1 }
  uselistorder i64* %1, { 0, 2, 3, 1 }
  uselistorder %struct.x86_regs* %0, { 1, 2, 0, 3, 4, 5 }
  uselistorder label %"4005fb", { 1, 0 }
}

declare void @x86_call_intrin(%struct.x86_config*, %struct.x86_regs*, i64) #0

; Function Attrs: noreturn nounwind
declare void @llvm.trap() #1

; Function Attrs: noreturn
declare void @x86_jump_intrin(%struct.x86_config*, %struct.x86_regs*, i64) #2

define void @__libc_csu_fini(%struct.x86_regs*) !fcd.vaddr !76 !fcd.output !1 !fcd.recoverable !1 {
entry:
  %1 = getelementptr inbounds %struct.x86_regs, %struct.x86_regs* %0, i64 0, i32 9, i32 0
  %2 = load i64, i64* %1, align 8
  %3 = getelementptr inbounds %struct.x86_regs, %struct.x86_regs* %0, i64 0, i32 8, i32 0
  %4 = load i64, i64* %3, align 8, !tbaa !2, !alias.scope !77
  %5 = add i64 %4, -8
  %6 = inttoptr i64 %5 to i64*
  store i64 %2, i64* %6, align 4, !fcd.prgmem !1
  ret void
}

define void @register_tm_clones(%struct.x86_regs*) !fcd.vaddr !82 !fcd.output !1 !fcd.recoverable !1 {
entry:
  %1 = getelementptr inbounds %struct.x86_regs, %struct.x86_regs* %0, i64 0, i32 9, i32 0
  %2 = load i64, i64* %1, align 8, !tbaa !2, !alias.scope !83
  %3 = getelementptr inbounds %struct.x86_regs, %struct.x86_regs* %0, i64 0, i32 8, i32 0
  %4 = load i64, i64* %3, align 8, !tbaa !2, !alias.scope !86
  %5 = add i64 %4, -8
  %6 = inttoptr i64 %5 to i64*
  store i64 %2, i64* %6, align 4, !fcd.prgmem !1
  %7 = getelementptr inbounds %struct.x86_regs, %struct.x86_regs* %0, i64 0, i32 5, i32 0
  %8 = getelementptr inbounds %struct.x86_regs, %struct.x86_regs* %0, i64 0, i32 7, i32 0
  %9 = load i64, i64* %8, align 8, !tbaa !2, !alias.scope !91, !noalias !98
  %10 = add i64 %4, -16
  %11 = inttoptr i64 %10 to i64*
  store i64 %9, i64* %11, align 4, !fcd.prgmem !1
  %12 = getelementptr inbounds %struct.x86_regs, %struct.x86_regs* %0, i64 0, i32 1, i32 0
  store i64 0, i64* %12, align 8, !tbaa !2, !alias.scope !100, !noalias !107
  store i64 0, i64* %7, align 8, !tbaa !2, !alias.scope !109, !noalias !116
  %13 = load i64, i64* %6, align 4, !fcd.prgmem !1
  store i64 %13, i64* %1, align 8, !tbaa !2, !alias.scope !118
  ret void
}

define void @__libc_csu_init(%struct.x86_regs*) !fcd.vaddr !121 !fcd.output !1 !fcd.recoverable !1 {
entry:
  %1 = getelementptr inbounds %struct.x86_regs, %struct.x86_regs* %0, i64 0, i32 9, i32 0
  %2 = load i64, i64* %1, align 8, !tbaa !2, !alias.scope !122
  %3 = getelementptr inbounds %struct.x86_regs, %struct.x86_regs* %0, i64 0, i32 8, i32 0
  %4 = load i64, i64* %3, align 8, !tbaa !2, !alias.scope !125
  %5 = add i64 %4, -8
  %6 = inttoptr i64 %5 to i64*
  store i64 %2, i64* %6, align 4, !fcd.prgmem !1
  %7 = getelementptr inbounds %struct.x86_regs, %struct.x86_regs* %0, i64 0, i32 17, i32 0
  %8 = load i64, i64* %7, align 8, !tbaa !2, !alias.scope !130, !noalias !137
  %9 = add i64 %4, -16
  %10 = inttoptr i64 %9 to i64*
  store i64 %8, i64* %10, align 4, !fcd.prgmem !1
  %11 = getelementptr inbounds %struct.x86_regs, %struct.x86_regs* %0, i64 0, i32 16, i32 0
  %12 = load i64, i64* %11, align 8, !tbaa !2, !alias.scope !139, !noalias !146
  %13 = add i64 %4, -24
  %14 = inttoptr i64 %13 to i64*
  store i64 %12, i64* %14, align 4, !fcd.prgmem !1
  %15 = getelementptr inbounds %struct.x86_regs, %struct.x86_regs* %0, i64 0, i32 6, i32 0
  %16 = bitcast i64* %15 to i32*
  %17 = load i32, i32* %16, align 4, !tbaa !148, !alias.scope !150, !noalias !159
  %18 = zext i32 %17 to i64
  store i64 %18, i64* %7, align 8, !tbaa !2, !alias.scope !162, !noalias !169
  %19 = getelementptr inbounds %struct.x86_regs, %struct.x86_regs* %0, i64 0, i32 15, i32 0
  %20 = load i64, i64* %19, align 8, !tbaa !2, !alias.scope !171, !noalias !178
  %21 = add i64 %4, -32
  %22 = inttoptr i64 %21 to i64*
  store i64 %20, i64* %22, align 4, !fcd.prgmem !1
  %23 = getelementptr inbounds %struct.x86_regs, %struct.x86_regs* %0, i64 0, i32 14, i32 0
  %24 = load i64, i64* %23, align 8, !tbaa !2, !alias.scope !180, !noalias !187
  %25 = add i64 %4, -40
  %26 = inttoptr i64 %25 to i64*
  store i64 %24, i64* %26, align 4, !fcd.prgmem !1
  store i64 6295056, i64* %23, align 8, !tbaa !2, !alias.scope !189, !noalias !196
  %27 = getelementptr inbounds %struct.x86_regs, %struct.x86_regs* %0, i64 0, i32 7, i32 0
  %28 = load i64, i64* %27, align 8, !tbaa !2, !alias.scope !198, !noalias !205
  %29 = add i64 %4, -48
  %30 = inttoptr i64 %29 to i64*
  store i64 %28, i64* %30, align 4, !fcd.prgmem !1
  %31 = getelementptr inbounds %struct.x86_regs, %struct.x86_regs* %0, i64 0, i32 2, i32 0
  %32 = load i64, i64* %31, align 8, !tbaa !2, !alias.scope !207, !noalias !214
  %33 = add i64 %4, -56
  %34 = inttoptr i64 %33 to i64*
  store i64 %32, i64* %34, align 4, !fcd.prgmem !1
  %35 = getelementptr inbounds %struct.x86_regs, %struct.x86_regs* %0, i64 0, i32 5, i32 0
  %36 = load i64, i64* %35, align 8, !tbaa !2, !alias.scope !216, !noalias !225
  store i64 %36, i64* %11, align 8, !tbaa !2, !alias.scope !228, !noalias !235
  %37 = getelementptr inbounds %struct.x86_regs, %struct.x86_regs* %0, i64 0, i32 4, i32 0
  %38 = load i64, i64* %37, align 8, !tbaa !2, !alias.scope !237, !noalias !246
  store i64 %38, i64* %19, align 8, !tbaa !2, !alias.scope !249, !noalias !256
  %39 = add i64 %4, -64
  store i64 %39, i64* %3, align 8, !tbaa !2, !alias.scope !258, !noalias !265
  store i64 1, i64* %27, align 8, !tbaa !2, !alias.scope !267, !noalias !274
  store i64 4196017, i64* %1, align 4
  call void @_init(%struct.x86_regs* %0)
  %40 = load i64, i64* %27, align 8, !tbaa !2, !alias.scope !276, !noalias !291
  %41 = icmp eq i64 %40, 0
  store i64 4196022, i64* %1, align 4
  br i1 %41, label %"4006d6", label %"4006b6"

"4006d6":                                         ; preds = %"4006c0", %entry
  %42 = load i64, i64* %3, align 8, !tbaa !2, !alias.scope !294, !noalias !301
  %43 = add i64 %42, 8
  %44 = inttoptr i64 %43 to i64*
  %45 = load i64, i64* %44, align 4, !fcd.prgmem !1
  %46 = add i64 %42, 16
  store i64 %45, i64* %31, align 8, !tbaa !2, !alias.scope !303, !noalias !310
  %47 = inttoptr i64 %46 to i64*
  %48 = load i64, i64* %47, align 4, !fcd.prgmem !1
  %49 = add i64 %42, 24
  store i64 %48, i64* %27, align 8, !tbaa !2, !alias.scope !312, !noalias !319
  %50 = inttoptr i64 %49 to i64*
  %51 = load i64, i64* %50, align 4, !fcd.prgmem !1
  %52 = add i64 %42, 32
  store i64 %51, i64* %23, align 8, !tbaa !2, !alias.scope !321, !noalias !328
  %53 = inttoptr i64 %52 to i64*
  %54 = load i64, i64* %53, align 4, !fcd.prgmem !1
  %55 = add i64 %42, 40
  store i64 %54, i64* %19, align 8, !tbaa !2, !alias.scope !330, !noalias !337
  %56 = inttoptr i64 %55 to i64*
  %57 = load i64, i64* %56, align 4, !fcd.prgmem !1
  %58 = add i64 %42, 48
  store i64 %57, i64* %11, align 8, !tbaa !2, !alias.scope !339, !noalias !346
  %59 = inttoptr i64 %58 to i64*
  %60 = load i64, i64* %59, align 4, !fcd.prgmem !1
  %61 = add i64 %42, 56
  store i64 %60, i64* %7, align 8, !tbaa !2, !alias.scope !348, !noalias !355
  %62 = inttoptr i64 %61 to i64*
  %63 = load i64, i64* %62, align 4, !fcd.prgmem !1
  %64 = add i64 %42, 64
  store i64 %64, i64* %3, align 8, !tbaa !2, !alias.scope !357
  store i64 %63, i64* %1, align 8, !tbaa !2, !alias.scope !362
  ret void

"4006b6":                                         ; preds = %entry
  store i64 0, i64* %31, align 8, !tbaa !2, !alias.scope !365, !noalias !372
  store i64 4196032, i64* %1, align 4
  br label %"4006c0"

"4006c0":                                         ; preds = %"4006c0", %"4006b6"
  %65 = phi i64 [ %82, %"4006c0" ], [ 0, %"4006b6" ]
  %66 = load i64, i64* %19, align 8, !tbaa !2, !alias.scope !374, !noalias !383
  store i64 %66, i64* %37, align 8, !tbaa !2, !alias.scope !386, !noalias !393
  %67 = load i64, i64* %11, align 8, !tbaa !2, !alias.scope !395, !noalias !404
  store i64 %67, i64* %35, align 8, !tbaa !2, !alias.scope !407, !noalias !414
  %68 = bitcast i64* %7 to i32*
  %69 = load i32, i32* %68, align 4, !tbaa !148, !alias.scope !416, !noalias !425
  %70 = zext i32 %69 to i64
  store i64 %70, i64* %15, align 8, !tbaa !2, !alias.scope !428, !noalias !435
  store i64 4196045, i64* %1, align 4
  %71 = shl i64 %65, 3
  %72 = load i64, i64* %23, align 8, !tbaa !2, !alias.scope !437, !noalias !446
  %73 = add i64 %72, %71
  %74 = inttoptr i64 %73 to i64*
  %75 = load i64, i64* %74, align 4, !fcd.prgmem !1
  %76 = inttoptr i64 %75 to void (i64, i64, i64)*
  %77 = getelementptr inbounds %struct.x86_regs, %struct.x86_regs* %0, i64 0, i32 8, i32 0
  %sp = load i64, i64* %77
  %78 = getelementptr inbounds %struct.x86_regs, %struct.x86_regs* %0, i64 0, i32 6, i32 0
  %rdi = load i64, i64* %78
  %79 = getelementptr inbounds %struct.x86_regs, %struct.x86_regs* %0, i64 0, i32 5, i32 0
  %rsi = load i64, i64* %79
  %80 = getelementptr inbounds %struct.x86_regs, %struct.x86_regs* %0, i64 0, i32 4, i32 0
  %rdx = load i64, i64* %80
  call void %76(i64 %rdi, i64 %rsi, i64 %rdx)
  %81 = load i64, i64* %31, align 8, !tbaa !2, !alias.scope !450, !noalias !457
  %82 = add i64 %81, 1
  store i64 %82, i64* %31, align 8, !tbaa !2, !alias.scope !459, !noalias !466
  %83 = load i64, i64* %27, align 8, !tbaa !2, !alias.scope !468, !noalias !475
  %84 = icmp eq i64 %82, %83
  store i64 4196054, i64* %1, align 4
  br i1 %84, label %"4006d6", label %"4006c0"

; uselistorder directives
  uselistorder i64* %31, { 1, 2, 3, 0, 4 }
  uselistorder i64* %27, { 1, 0, 2, 3, 4 }
  uselistorder i64* %23, { 1, 0, 2, 3 }
  uselistorder i64* %19, { 1, 0, 2, 3 }
  uselistorder i64* %11, { 1, 0, 2, 3 }
  uselistorder i64* %7, { 1, 0, 2, 3 }
  uselistorder i64* %1, { 2, 3, 4, 0, 5, 6, 1 }
  uselistorder %struct.x86_regs* %0, { 0, 1, 2, 3, 14, 5, 6, 7, 8, 9, 10, 4, 11, 12, 13, 15 }
}

define void @_init(%struct.x86_regs*) !fcd.vaddr !477 !fcd.output !1 !fcd.recoverable !1 {
entry:
  %1 = getelementptr inbounds %struct.x86_regs, %struct.x86_regs* %0, i64 0, i32 9, i32 0
  %2 = load i64, i64* %1, align 8, !tbaa !2, !alias.scope !478
  %3 = getelementptr inbounds %struct.x86_regs, %struct.x86_regs* %0, i64 0, i32 8, i32 0
  %4 = load i64, i64* %3, align 8, !tbaa !2, !alias.scope !481
  %5 = add i64 %4, -8
  %6 = inttoptr i64 %5 to i64*
  store i64 %2, i64* %6, align 4, !fcd.prgmem !1
  %7 = add i64 %4, -16
  store i64 %7, i64* %3, align 8, !tbaa !2, !alias.scope !486, !noalias !493
  %8 = load i64, i64* inttoptr (i64 6295544 to i64*), align 8
  %9 = getelementptr inbounds %struct.x86_regs, %struct.x86_regs* %0, i64 0, i32 1, i32 0
  store i64 %8, i64* %9, align 8, !tbaa !2, !alias.scope !495, !noalias !504
  %10 = icmp eq i64 %8, 0
  store i64 4195504, i64* %1, align 4
  br i1 %10, label %"4004b5", label %"4004b0"

"4004b5":                                         ; preds = %entry, %"4004b0"
  %11 = phi i64 [ %7, %entry ], [ %.pre, %"4004b0" ]
  %12 = add i64 %11, 8
  %13 = inttoptr i64 %12 to i64*
  %14 = load i64, i64* %13, align 4, !fcd.prgmem !1
  %15 = add i64 %11, 16
  store i64 %15, i64* %3, align 8, !tbaa !2, !alias.scope !507
  store i64 %14, i64* %1, align 8, !tbaa !2, !alias.scope !512
  ret void

"4004b0":                                         ; preds = %entry
  store i64 4195509, i64* %1, align 4
  call void @func_400510(%struct.x86_regs* %0)
  %.pre = load i64, i64* %3, align 8, !tbaa !2, !alias.scope !515, !noalias !522
  br label %"4004b5"

; uselistorder directives
  uselistorder i64 %11, { 1, 0 }
  uselistorder i64* %3, { 1, 0, 2, 3 }
  uselistorder i64* %1, { 2, 0, 3, 1 }
  uselistorder %struct.x86_regs* %0, { 2, 0, 1, 3 }
  uselistorder label %"4004b5", { 1, 0 }
}

define void @__do_global_dtors_aux(%struct.x86_regs*) !fcd.vaddr !524 !fcd.output !1 !fcd.recoverable !1 {
entry:
  %1 = getelementptr inbounds %struct.x86_regs, %struct.x86_regs* %0, i64 0, i32 9, i32 0
  %2 = load i64, i64* %1, align 8, !tbaa !2, !alias.scope !525
  %3 = getelementptr inbounds %struct.x86_regs, %struct.x86_regs* %0, i64 0, i32 8, i32 0
  %4 = load i64, i64* %3, align 8, !tbaa !2, !alias.scope !528
  %5 = add i64 %4, -8
  %6 = inttoptr i64 %5 to i64*
  store i64 %2, i64* %6, align 4, !fcd.prgmem !1
  store i64 %5, i64* %3, align 8, !tbaa !2, !alias.scope !533
  %7 = load i8, i8* inttoptr (i64 6295640 to i8*), align 8
  %8 = icmp eq i8 %7, 0
  store i64 4195801, i64* %1, align 4
  br i1 %8, label %"4005d9", label %"4005ea"

"4005ea":                                         ; preds = %entry, %"4005d9"
  %9 = phi i64 [ %2, %entry ], [ %.pre, %"4005d9" ]
  %10 = phi i64 [ %5, %entry ], [ %19, %"4005d9" ]
  %11 = add i64 %10, 8
  store i64 %11, i64* %3, align 8, !tbaa !2, !alias.scope !536
  store i64 %9, i64* %1, align 8, !tbaa !2, !alias.scope !541
  ret void

"4005d9":                                         ; preds = %entry
  %12 = getelementptr inbounds %struct.x86_regs, %struct.x86_regs* %0, i64 0, i32 7, i32 0
  %13 = load i64, i64* %12, align 8, !tbaa !2, !alias.scope !544, !noalias !551
  %14 = add i64 %4, -16
  %15 = inttoptr i64 %14 to i64*
  store i64 %13, i64* %15, align 4, !fcd.prgmem !1
  store i64 %14, i64* %3, align 8, !tbaa !2, !alias.scope !553
  store i64 %14, i64* %12, align 8, !tbaa !2, !alias.scope !558, !noalias !567
  store i64 4195810, i64* %1, align 4
  call void @deregister_tm_clones(%struct.x86_regs* %0)
  %16 = load i64, i64* %3, align 8, !tbaa !2, !alias.scope !570
  %17 = inttoptr i64 %16 to i64*
  %18 = load i64, i64* %17, align 4, !fcd.prgmem !1
  %19 = add i64 %16, 8
  store i64 %19, i64* %3, align 8, !tbaa !2, !alias.scope !575
  store i64 %18, i64* %12, align 8, !tbaa !2, !alias.scope !578, !noalias !585
  store i64 4195818, i64* %1, align 4
  store i8 1, i8* inttoptr (i64 6295640 to i8*), align 8, !fcd.prgmem !1
  %.phi.trans.insert = inttoptr i64 %19 to i64*
  %.pre = load i64, i64* %.phi.trans.insert, align 4
  br label %"4005ea"

; uselistorder directives
  uselistorder i64 %19, { 0, 2, 1 }
  uselistorder i64 %16, { 1, 0 }
  uselistorder i64* %3, { 1, 2, 3, 0, 5, 4 }
  uselistorder i64* %1, { 2, 3, 0, 4, 1 }
  uselistorder i64 8, { 2, 3, 0, 1, 4 }
  uselistorder %struct.x86_regs* %0, { 2, 0, 1, 3 }
  uselistorder label %"4005ea", { 1, 0 }
}

define void @deregister_tm_clones(%struct.x86_regs*) !fcd.vaddr !587 !fcd.output !1 !fcd.recoverable !1 {
entry:
  %1 = getelementptr inbounds %struct.x86_regs, %struct.x86_regs* %0, i64 0, i32 9, i32 0
  %2 = load i64, i64* %1, align 8, !tbaa !2, !alias.scope !588
  %3 = getelementptr inbounds %struct.x86_regs, %struct.x86_regs* %0, i64 0, i32 8, i32 0
  %4 = load i64, i64* %3, align 8, !tbaa !2, !alias.scope !591
  %5 = add i64 %4, -8
  %6 = inttoptr i64 %5 to i64*
  store i64 %2, i64* %6, align 4, !fcd.prgmem !1
  %7 = getelementptr inbounds %struct.x86_regs, %struct.x86_regs* %0, i64 0, i32 1, i32 0
  %8 = getelementptr inbounds %struct.x86_regs, %struct.x86_regs* %0, i64 0, i32 7, i32 0
  %9 = load i64, i64* %8, align 8, !tbaa !2, !alias.scope !596, !noalias !603
  %10 = add i64 %4, -16
  %11 = inttoptr i64 %10 to i64*
  store i64 %9, i64* %11, align 4, !fcd.prgmem !1
  store i64 7, i64* %7, align 8, !tbaa !2, !alias.scope !605, !noalias !612
  %12 = load i64, i64* %6, align 4, !fcd.prgmem !1
  store i64 %12, i64* %1, align 8, !tbaa !2, !alias.scope !614
  ret void
}

define void @_start(%struct.x86_regs*) !fcd.vaddr !617 !fcd.output !1 !fcd.recoverable !1 {
entry:
  %1 = getelementptr inbounds %struct.x86_regs, %struct.x86_regs* %0, i64 0, i32 9, i32 0
  %2 = load i64, i64* %1, align 8, !tbaa !2, !alias.scope !618
  %3 = getelementptr inbounds %struct.x86_regs, %struct.x86_regs* %0, i64 0, i32 8, i32 0
  %4 = load i64, i64* %3, align 8, !tbaa !2, !alias.scope !621
  %5 = add i64 %4, -8
  %6 = inttoptr i64 %5 to i64*
  store i64 %2, i64* %6, align 4, !fcd.prgmem !1
  %7 = getelementptr inbounds %struct.x86_regs, %struct.x86_regs* %0, i64 0, i32 7, i32 0
  store i64 0, i64* %7, align 8, !tbaa !2, !alias.scope !626, !noalias !633
  %8 = getelementptr inbounds %struct.x86_regs, %struct.x86_regs* %0, i64 0, i32 4, i32 0
  %9 = load i64, i64* %8, align 8, !tbaa !2, !alias.scope !635, !noalias !644
  %10 = getelementptr inbounds %struct.x86_regs, %struct.x86_regs* %0, i64 0, i32 11, i32 0
  store i64 %9, i64* %10, align 8, !tbaa !2, !alias.scope !647, !noalias !654
  %11 = getelementptr inbounds %struct.x86_regs, %struct.x86_regs* %0, i64 0, i32 5, i32 0
  store i64 %2, i64* %11, align 8, !tbaa !2, !alias.scope !656, !noalias !663
  store i64 %4, i64* %8, align 8, !tbaa !2, !alias.scope !665, !noalias !674
  %12 = and i64 %4, -16
  %13 = getelementptr inbounds %struct.x86_regs, %struct.x86_regs* %0, i64 0, i32 1, i32 0
  %14 = load i64, i64* %13, align 8, !tbaa !2, !alias.scope !677, !noalias !684
  %15 = add i64 %12, -8
  %16 = inttoptr i64 %15 to i64*
  store i64 %14, i64* %16, align 8, !fcd.prgmem !1
  %17 = add i64 %12, -16
  %18 = inttoptr i64 %17 to i64*
  store i64 %15, i64* %18, align 16, !fcd.prgmem !1
  store i64 %17, i64* %3, align 8, !tbaa !2, !alias.scope !686
  %19 = getelementptr inbounds %struct.x86_regs, %struct.x86_regs* %0, i64 0, i32 10, i32 0
  store i64 4196080, i64* %19, align 8, !tbaa !2, !alias.scope !691, !noalias !700
  %20 = getelementptr inbounds %struct.x86_regs, %struct.x86_regs* %0, i64 0, i32 3, i32 0
  store i64 4195968, i64* %20, align 8, !tbaa !2, !alias.scope !703, !noalias !712
  %21 = getelementptr inbounds %struct.x86_regs, %struct.x86_regs* %0, i64 0, i32 6, i32 0
  store i64 4195862, i64* %21, align 8, !tbaa !2, !alias.scope !715, !noalias !724
  store i64 4195657, i64* %1, align 4
  call void @__libc_start_main(%struct.x86_regs* %0)
  store i64 4195658, i64* %1, align 4
  tail call void @llvm.trap()
  unreachable

; uselistorder directives
  uselistorder i64* %1, { 1, 2, 0 }
  uselistorder %struct.x86_regs* %0, { 9, 0, 1, 2, 3, 4, 5, 6, 7, 8, 10 }
}

define void @__libc_start_main(%struct.x86_regs*) !fcd.vaddr !727 !fcd.output !1 !fcd.recoverable !1 !fcd.importname !728 {
entry:
  %1 = getelementptr inbounds %struct.x86_regs, %struct.x86_regs* %0, i64 0, i32 9, i32 0
  %2 = load i64, i64* %1, align 8, !tbaa !2, !alias.scope !729
  %3 = getelementptr inbounds %struct.x86_regs, %struct.x86_regs* %0, i64 0, i32 8, i32 0
  %4 = load i64, i64* %3, align 8, !tbaa !2, !alias.scope !732
  %5 = add i64 %4, -8
  %6 = inttoptr i64 %5 to i64*
  store i64 %2, i64* %6, align 4, !fcd.prgmem !1
  store i64 %5, i64* %3, align 8, !tbaa !2, !alias.scope !737
  store i64 4195574, i64* %1, align 4
  %7 = load i64, i64* inttoptr (i64 6295592 to i64*), align 8, !fcd.prgmem !1
  %8 = inttoptr i64 %7 to i64
  call void @__indirect_jump(i64 %8)
  unreachable

; uselistorder directives
  uselistorder i64* %3, { 1, 0 }
  uselistorder i64* %1, { 1, 0 }
}

define void @_fini(%struct.x86_regs*) !fcd.vaddr !740 !fcd.output !1 !fcd.recoverable !1 {
entry:
  %1 = getelementptr inbounds %struct.x86_regs, %struct.x86_regs* %0, i64 0, i32 9, i32 0
  %2 = load i64, i64* %1, align 8, !tbaa !2, !alias.scope !741
  %3 = getelementptr inbounds %struct.x86_regs, %struct.x86_regs* %0, i64 0, i32 8, i32 0
  %4 = load i64, i64* %3, align 8, !tbaa !2, !alias.scope !744
  %5 = add i64 %4, -8
  %6 = inttoptr i64 %5 to i64*
  store i64 %2, i64* %6, align 4, !fcd.prgmem !1
  ret void
}

define void @main(%struct.x86_regs*) !fcd.vaddr !749 !fcd.output !1 !fcd.recoverable !1 {
entry:
  %1 = getelementptr inbounds %struct.x86_regs, %struct.x86_regs* %0, i64 0, i32 9, i32 0
  %2 = load i64, i64* %1, align 8, !tbaa !2, !alias.scope !750
  %3 = getelementptr inbounds %struct.x86_regs, %struct.x86_regs* %0, i64 0, i32 8, i32 0
  %4 = load i64, i64* %3, align 8, !tbaa !2, !alias.scope !753
  %5 = add i64 %4, -8
  %6 = inttoptr i64 %5 to i64*
  store i64 %2, i64* %6, align 4, !fcd.prgmem !1
  %7 = add i64 %4, -128
  store i64 %7, i64* %3, align 8, !tbaa !2, !alias.scope !758, !noalias !765
  store i64 4195875, i64* %1, align 4
  %8 = getelementptr inbounds %struct.x86_regs, %struct.x86_regs* %0, i64 0, i32 21, i32 0
  %9 = load i64, i64* %8, align 8, !tbaa !2, !alias.scope !767, !noalias !778
  %10 = add i64 %9, 40
  %11 = inttoptr i64 %10 to i64*
  %12 = load i64, i64* %11, align 4
  %13 = getelementptr inbounds %struct.x86_regs, %struct.x86_regs* %0, i64 0, i32 1, i32 0
  %14 = add i64 %4, -24
  %15 = inttoptr i64 %14 to i64*
  store i64 %12, i64* %15, align 4, !fcd.prgmem !1
  store i64 0, i64* %13, align 8, !tbaa !2, !alias.scope !783, !noalias !790
  %16 = load i64, i64* inttoptr (i64 6295632 to i64*), align 16, !fcd.prgmem !1
  %17 = getelementptr inbounds %struct.x86_regs, %struct.x86_regs* %0, i64 0, i32 4, i32 0
  store i64 %16, i64* %17, align 8, !tbaa !2, !alias.scope !792, !noalias !801
  %18 = getelementptr inbounds %struct.x86_regs, %struct.x86_regs* %0, i64 0, i32 5, i32 0
  store i64 99, i64* %18, align 8, !tbaa !2, !alias.scope !804, !noalias !813
  %19 = getelementptr inbounds %struct.x86_regs, %struct.x86_regs* %0, i64 0, i32 6, i32 0
  store i64 %7, i64* %19, align 8, !tbaa !2, !alias.scope !816, !noalias !825
  store i64 4195902, i64* %1, align 4
  call void @fgets(%struct.x86_regs* %0)
  %20 = load i64, i64* %3, align 8, !tbaa !2, !alias.scope !828, !noalias !841
  store i64 %20, i64* %13, align 8, !tbaa !2, !alias.scope !842, !noalias !849
  store i64 4195910, i64* %1, align 4
  %21 = add i64 %20, 100
  store i64 %21, i64* %17, align 8, !tbaa !2, !alias.scope !852, !noalias !859
  br label %"400646"

"400646":                                         ; preds = %"400646", %entry
  %.in = phi i64 [ %25, %"400646" ], [ %20, %entry ]
  %22 = inttoptr i64 %.in to i8*
  %23 = load i8, i8* %22, align 1, !fcd.prgmem !1
  %24 = xor i8 %23, 66
  store i8 %24, i8* %22, align 1, !fcd.prgmem !1
  %25 = add i64 %.in, 1
  store i64 %25, i64* %13, align 8, !tbaa !2, !alias.scope !861, !noalias !868
  %26 = icmp eq i64 %25, %21
  store i64 4195922, i64* %1, align 4
  br i1 %26, label %"400652", label %"400646"

"400652":                                         ; preds = %"400646"
  %27 = add i64 %20, 99
  %28 = inttoptr i64 %27 to i8*
  store i8 0, i8* %28, align 1, !fcd.prgmem !1
  store i64 %20, i64* %19, align 8, !tbaa !2, !alias.scope !870, !noalias !879
  store i64 4195935, i64* %1, align 4
  call void @puts(%struct.x86_regs* %0)
  store i64 0, i64* %13, align 8, !tbaa !2, !alias.scope !882, !noalias !891
  store i64 4195945, i64* %1, align 4
  %29 = load i64, i64* %3, align 8, !tbaa !2, !alias.scope !894, !noalias !905
  %30 = add i64 %29, 104
  %31 = inttoptr i64 %30 to i64*
  %32 = load i64, i64* %31, align 4
  %33 = getelementptr inbounds %struct.x86_regs, %struct.x86_regs* %0, i64 0, i32 3, i32 0
  %34 = load i64, i64* %8, align 8, !tbaa !2, !alias.scope !910, !noalias !921
  %35 = add i64 %34, 40
  %36 = inttoptr i64 %35 to i64*
  %37 = load i64, i64* %36, align 4, !fcd.prgmem !1
  %38 = xor i64 %37, %32
  %39 = icmp eq i64 %37, %32
  store i64 %38, i64* %33, align 8, !tbaa !2, !alias.scope !927, !noalias !934
  store i64 4195956, i64* %1, align 4
  br i1 %39, label %"400679", label %"400674"

"400679":                                         ; preds = %"400652", %"400674"
  %40 = phi i64 [ %29, %"400652" ], [ %.pre, %"400674" ]
  %41 = add i64 %40, 120
  %42 = inttoptr i64 %41 to i64*
  %43 = load i64, i64* %42, align 4, !fcd.prgmem !1
  %44 = add i64 %40, 128
  store i64 %44, i64* %3, align 8, !tbaa !2, !alias.scope !936
  store i64 %43, i64* %1, align 8, !tbaa !2, !alias.scope !941
  ret void

"400674":                                         ; preds = %"400652"
  store i64 4195961, i64* %1, align 4
  call void @__stack_chk_fail(%struct.x86_regs* %0)
  %.pre = load i64, i64* %3, align 8, !tbaa !2, !alias.scope !944, !noalias !951
  br label %"400679"

; uselistorder directives
  uselistorder i64 %25, { 1, 2, 0 }
  uselistorder i64 %20, { 2, 1, 0, 3, 4 }
  uselistorder i64* %3, { 1, 0, 2, 3, 4, 5 }
  uselistorder i64* %1, { 2, 0, 3, 4, 5, 6, 7, 8, 9, 1 }
  uselistorder i32 6, { 1, 2, 0, 3, 4 }
  uselistorder i32 5, { 1, 2, 0, 3, 4, 5 }
  uselistorder i32 4, { 1, 2, 0, 3 }
  uselistorder i64 40, { 1, 2, 0 }
  uselistorder %struct.x86_regs* %0, { 7, 0, 8, 9, 1, 2, 3, 4, 5, 6, 10 }
  uselistorder label %"400679", { 1, 0 }
}

define void @fgets(%struct.x86_regs*) !fcd.vaddr !953 !fcd.output !1 !fcd.recoverable !1 !fcd.importname !954 {
entry:
  %1 = getelementptr inbounds %struct.x86_regs, %struct.x86_regs* %0, i64 0, i32 9, i32 0
  %2 = load i64, i64* %1, align 8, !tbaa !2, !alias.scope !955
  %3 = getelementptr inbounds %struct.x86_regs, %struct.x86_regs* %0, i64 0, i32 8, i32 0
  %4 = load i64, i64* %3, align 8, !tbaa !2, !alias.scope !958
  %5 = add i64 %4, -8
  %6 = inttoptr i64 %5 to i64*
  store i64 %2, i64* %6, align 4, !fcd.prgmem !1
  store i64 %5, i64* %3, align 8, !tbaa !2, !alias.scope !963
  store i64 4195590, i64* %1, align 4
  %7 = load i64, i64* inttoptr (i64 6295600 to i64*), align 16, !fcd.prgmem !1
  %8 = inttoptr i64 %7 to i64
  call void @__indirect_jump(i64 %8)
  unreachable

; uselistorder directives
  uselistorder i64* %3, { 1, 0 }
  uselistorder i64* %1, { 1, 0 }
}

define void @puts(%struct.x86_regs*) !fcd.vaddr !966 !fcd.output !1 !fcd.recoverable !1 !fcd.importname !967 {
entry:
  %1 = getelementptr inbounds %struct.x86_regs, %struct.x86_regs* %0, i64 0, i32 9, i32 0
  %2 = load i64, i64* %1, align 8, !tbaa !2, !alias.scope !968
  %3 = getelementptr inbounds %struct.x86_regs, %struct.x86_regs* %0, i64 0, i32 8, i32 0
  %4 = load i64, i64* %3, align 8, !tbaa !2, !alias.scope !971
  %5 = add i64 %4, -8
  %6 = inttoptr i64 %5 to i64*
  store i64 %2, i64* %6, align 4, !fcd.prgmem !1
  store i64 %5, i64* %3, align 8, !tbaa !2, !alias.scope !976
  store i64 4195542, i64* %1, align 4
  %7 = load i64, i64* inttoptr (i64 6295576 to i64*), align 8, !fcd.prgmem !1
  %8 = inttoptr i64 %7 to i64
  call void @__indirect_jump(i64 %8)
  unreachable

; uselistorder directives
  uselistorder i64* %3, { 1, 0 }
  uselistorder i64* %1, { 1, 0 }
}

define void @__stack_chk_fail(%struct.x86_regs*) !fcd.vaddr !979 !fcd.output !1 !fcd.recoverable !1 !fcd.importname !980 {
entry:
  %1 = getelementptr inbounds %struct.x86_regs, %struct.x86_regs* %0, i64 0, i32 9, i32 0
  %2 = load i64, i64* %1, align 8, !tbaa !2, !alias.scope !981
  %3 = getelementptr inbounds %struct.x86_regs, %struct.x86_regs* %0, i64 0, i32 8, i32 0
  %4 = load i64, i64* %3, align 8, !tbaa !2, !alias.scope !984
  %5 = add i64 %4, -8
  %6 = inttoptr i64 %5 to i64*
  store i64 %2, i64* %6, align 4, !fcd.prgmem !1
  store i64 %5, i64* %3, align 8, !tbaa !2, !alias.scope !989
  store i64 4195558, i64* %1, align 4
  %7 = load i64, i64* inttoptr (i64 6295584 to i64*), align 32, !fcd.prgmem !1
  %8 = inttoptr i64 %7 to i64
  call void @__indirect_jump(i64 %8)
  unreachable

; uselistorder directives
  uselistorder i64* %3, { 1, 0 }
  uselistorder i64* %1, { 1, 0 }
}

define void @func_400510(%struct.x86_regs*) !fcd.vaddr !992 !fcd.output !1 !fcd.recoverable !1 {
entry:
  %1 = getelementptr inbounds %struct.x86_regs, %struct.x86_regs* %0, i64 0, i32 9, i32 0
  %2 = load i64, i64* %1, align 8, !tbaa !2, !alias.scope !993
  %3 = getelementptr inbounds %struct.x86_regs, %struct.x86_regs* %0, i64 0, i32 8, i32 0
  %4 = load i64, i64* %3, align 8, !tbaa !2, !alias.scope !996
  %5 = add i64 %4, -8
  %6 = inttoptr i64 %5 to i64*
  store i64 %2, i64* %6, align 4, !fcd.prgmem !1
  store i64 %5, i64* %3, align 8, !tbaa !2, !alias.scope !1001
  store i64 4195606, i64* %1, align 4
  %7 = load i64, i64* inttoptr (i64 6295544 to i64*), align 8, !fcd.prgmem !1
  %8 = inttoptr i64 %7 to i64
  call void @__indirect_jump(i64 %8)
  unreachable

; uselistorder directives
  uselistorder i64* %3, { 1, 0 }
  uselistorder i64* %1, { 1, 0 }
  uselistorder void (i64)* @__indirect_jump, { 0, 3, 2, 1, 4 }
  uselistorder i32 8, { 1, 2, 3, 4, 5, 6, 7, 8, 9, 10, 11, 0, 12, 13, 14, 15 }
  uselistorder i32 0, { 4, 57, 5, 54, 6, 55, 7, 56, 8, 9, 10, 11, 12, 13, 14, 60, 15, 61, 16, 53, 17, 18, 19, 20, 21, 22, 23, 24, 25, 62, 26, 27, 28, 59, 29, 30, 63, 31, 32, 58, 0, 1, 2, 3, 34, 35, 36, 37, 38, 39, 33, 40, 41, 42, 64, 43, 44, 45, 46, 65, 47, 66, 49, 50, 48, 51, 52, 67 }
  uselistorder i32 9, { 4, 1, 2, 3, 7, 8, 0, 9, 6, 10, 5, 11, 12, 13, 14 }
  uselistorder i64 0, { 4, 65, 5, 62, 6, 63, 7, 64, 8, 69, 9, 10, 11, 12, 13, 14, 15, 70, 16, 71, 17, 61, 18, 19, 20, 21, 22, 23, 24, 26, 25, 27, 72, 28, 29, 30, 68, 31, 32, 73, 66, 33, 34, 67, 0, 1, 2, 3, 35, 37, 74, 38, 39, 40, 41, 42, 43, 36, 44, 45, 46, 75, 47, 48, 49, 50, 51, 52, 76, 53, 77, 55, 56, 57, 58, 78, 54, 79, 59, 60, 80 }
}

; Function Attrs: noreturn
declare void @__indirect_jump(i64) #3

attributes #0 = { "disable-tail-calls"="false" "less-precise-fpmad"="false" "no-frame-pointer-elim"="false" "no-infs-fp-math"="false" "no-nans-fp-math"="false" "stack-protector-buffer-size"="8" "target-cpu"="x86-64" "target-features"="+fxsr,+mmx,+sse,+sse2" "unsafe-fp-math"="false" "use-soft-float"="false" }
attributes #1 = { noreturn nounwind }
attributes #2 = { noreturn "disable-tail-calls"="false" "less-precise-fpmad"="false" "no-frame-pointer-elim"="false" "no-infs-fp-math"="false" "no-nans-fp-math"="false" "stack-protector-buffer-size"="8" "target-cpu"="x86-64" "target-features"="+fxsr,+mmx,+sse,+sse2" "unsafe-fp-math"="false" "use-soft-float"="false" }
attributes #3 = { noreturn }

!0 = !{i64 4195824}
!1 = !{i1 true}
!2 = !{!3, !3, i64 0}
!3 = !{!"long", !4, i64 0}
!4 = !{!"omnipotent char", !5, i64 0}
!5 = !{!"Simple C/C++ TBAA"}
!6 = !{!7}
!7 = distinct !{!7, !8, !"_ZL12x86_read_regPK8x86_regs7x86_reg: %regs"}
!8 = distinct !{!8, !"_ZL12x86_read_regPK8x86_regs7x86_reg"}
!9 = !{!10, !12}
!10 = distinct !{!10, !11, !"_ZL12x86_read_regPK8x86_regs7x86_reg: %regs"}
!11 = distinct !{!11, !"_ZL12x86_read_regPK8x86_regs7x86_reg"}
!12 = distinct !{!12, !13, !"_ZL14x86_push_valuePK10x86_configP8x86_regsmm: %regs"}
!13 = distinct !{!13, !"_ZL14x86_push_valuePK10x86_configP8x86_regsmm"}
!14 = !{!15, !12}
!15 = distinct !{!15, !16, !"_ZL13x86_write_regP8x86_regs7x86_regm: %regs"}
!16 = distinct !{!16, !"_ZL13x86_write_regP8x86_regs7x86_regm"}
!17 = !{!18, !20, !22, !24}
!18 = distinct !{!18, !19, !"_ZL13x86_write_regP8x86_regs7x86_regm: %regs"}
!19 = distinct !{!19, !"_ZL13x86_write_regP8x86_regs7x86_regm"}
!20 = distinct !{!20, !21, !"_ZL13x86_write_regP8x86_regsPK9cs_x86_opm: %regs"}
!21 = distinct !{!21, !"_ZL13x86_write_regP8x86_regsPK9cs_x86_opm"}
!22 = distinct !{!22, !23, !"_ZL29x86_write_destination_operandPK9cs_x86_opP8x86_regsm: %regs"}
!23 = distinct !{!23, !"_ZL29x86_write_destination_operandPK9cs_x86_opP8x86_regsm"}
!24 = distinct !{!24, !25, !"_ZL20x86_move_zero_extendP8x86_regsPK6cs_x86: %regs"}
!25 = distinct !{!25, !"_ZL20x86_move_zero_extendP8x86_regsPK6cs_x86"}
!26 = !{!27, !28}
!27 = distinct !{!27, !23, !"_ZL29x86_write_destination_operandPK9cs_x86_opP8x86_regsm: %destination"}
!28 = distinct !{!28, !25, !"_ZL20x86_move_zero_extendP8x86_regsPK6cs_x86: %inst"}
!29 = !{!30, !32, !34, !36}
!30 = distinct !{!30, !31, !"_ZL13x86_write_regP8x86_regs7x86_regm: %regs"}
!31 = distinct !{!31, !"_ZL13x86_write_regP8x86_regs7x86_regm"}
!32 = distinct !{!32, !33, !"_ZL13x86_write_regP8x86_regsPK9cs_x86_opm: %regs"}
!33 = distinct !{!33, !"_ZL13x86_write_regP8x86_regsPK9cs_x86_opm"}
!34 = distinct !{!34, !35, !"_ZL29x86_write_destination_operandPK9cs_x86_opP8x86_regsm: %regs"}
!35 = distinct !{!35, !"_ZL29x86_write_destination_operandPK9cs_x86_opP8x86_regsm"}
!36 = distinct !{!36, !37, !"_ZL20x86_move_zero_extendP8x86_regsPK6cs_x86: %regs"}
!37 = distinct !{!37, !"_ZL20x86_move_zero_extendP8x86_regsPK6cs_x86"}
!38 = !{!39, !40}
!39 = distinct !{!39, !35, !"_ZL29x86_write_destination_operandPK9cs_x86_opP8x86_regsm: %destination"}
!40 = distinct !{!40, !37, !"_ZL20x86_move_zero_extendP8x86_regsPK6cs_x86: %inst"}
!41 = !{!42, !44, !46}
!42 = distinct !{!42, !43, !"_ZL12x86_read_regPK8x86_regs7x86_reg: %regs"}
!43 = distinct !{!43, !"_ZL12x86_read_regPK8x86_regs7x86_reg"}
!44 = distinct !{!44, !45, !"_ZL12x86_read_regPK8x86_regsPK9cs_x86_op: %regs"}
!45 = distinct !{!45, !"_ZL12x86_read_regPK8x86_regsPK9cs_x86_op"}
!46 = distinct !{!46, !47, !"_ZL23x86_read_source_operandPK9cs_x86_opPK8x86_regs: %regs"}
!47 = distinct !{!47, !"_ZL23x86_read_source_operandPK9cs_x86_opPK8x86_regs"}
!48 = !{!49}
!49 = distinct !{!49, !47, !"_ZL23x86_read_source_operandPK9cs_x86_opPK8x86_regs: %source"}
!50 = !{!51, !53, !55}
!51 = distinct !{!51, !52, !"_ZL13x86_write_regP8x86_regs7x86_regm: %regs"}
!52 = distinct !{!52, !"_ZL13x86_write_regP8x86_regs7x86_regm"}
!53 = distinct !{!53, !54, !"_ZL13x86_write_regP8x86_regsPK9cs_x86_opm: %regs"}
!54 = distinct !{!54, !"_ZL13x86_write_regP8x86_regsPK9cs_x86_opm"}
!55 = distinct !{!55, !56, !"_ZL29x86_write_destination_operandPK9cs_x86_opP8x86_regsm: %regs"}
!56 = distinct !{!56, !"_ZL29x86_write_destination_operandPK9cs_x86_opP8x86_regsm"}
!57 = !{!58}
!58 = distinct !{!58, !56, !"_ZL29x86_write_destination_operandPK9cs_x86_opP8x86_regsm: %destination"}
!59 = !{!60, !62, !64}
!60 = distinct !{!60, !61, !"_ZL13x86_write_regP8x86_regs7x86_regm: %regs"}
!61 = distinct !{!61, !"_ZL13x86_write_regP8x86_regs7x86_regm"}
!62 = distinct !{!62, !63, !"_ZL13x86_write_regP8x86_regsPK9cs_x86_opm: %regs"}
!63 = distinct !{!63, !"_ZL13x86_write_regP8x86_regsPK9cs_x86_opm"}
!64 = distinct !{!64, !65, !"_ZL29x86_write_destination_operandPK9cs_x86_opP8x86_regsm: %regs"}
!65 = distinct !{!65, !"_ZL29x86_write_destination_operandPK9cs_x86_opP8x86_regsm"}
!66 = !{!67}
!67 = distinct !{!67, !65, !"_ZL29x86_write_destination_operandPK9cs_x86_opP8x86_regsm: %destination"}
!68 = !{!69, !71}
!69 = distinct !{!69, !70, !"_ZL13x86_write_regP8x86_regs7x86_regm: %regs"}
!70 = distinct !{!70, !"_ZL13x86_write_regP8x86_regs7x86_regm"}
!71 = distinct !{!71, !72, !"_ZL13x86_pop_valuePK10x86_configP8x86_regsm: %regs"}
!72 = distinct !{!72, !"_ZL13x86_pop_valuePK10x86_configP8x86_regsm"}
!73 = !{!74}
!74 = distinct !{!74, !75, !"_ZL13x86_write_regP8x86_regs7x86_regm: %regs"}
!75 = distinct !{!75, !"_ZL13x86_write_regP8x86_regs7x86_regm"}
!76 = !{i64 4196080}
!77 = !{!78, !80}
!78 = distinct !{!78, !79, !"_ZL12x86_read_regPK8x86_regs7x86_reg: %regs"}
!79 = distinct !{!79, !"_ZL12x86_read_regPK8x86_regs7x86_reg"}
!80 = distinct !{!80, !81, !"_ZL14x86_push_valuePK10x86_configP8x86_regsmm: %regs"}
!81 = distinct !{!81, !"_ZL14x86_push_valuePK10x86_configP8x86_regsmm"}
!82 = !{i64 4195728}
!83 = !{!84}
!84 = distinct !{!84, !85, !"_ZL12x86_read_regPK8x86_regs7x86_reg: %regs"}
!85 = distinct !{!85, !"_ZL12x86_read_regPK8x86_regs7x86_reg"}
!86 = !{!87, !89}
!87 = distinct !{!87, !88, !"_ZL12x86_read_regPK8x86_regs7x86_reg: %regs"}
!88 = distinct !{!88, !"_ZL12x86_read_regPK8x86_regs7x86_reg"}
!89 = distinct !{!89, !90, !"_ZL14x86_push_valuePK10x86_configP8x86_regsmm: %regs"}
!90 = distinct !{!90, !"_ZL14x86_push_valuePK10x86_configP8x86_regsmm"}
!91 = !{!92, !94, !96}
!92 = distinct !{!92, !93, !"_ZL12x86_read_regPK8x86_regs7x86_reg: %regs"}
!93 = distinct !{!93, !"_ZL12x86_read_regPK8x86_regs7x86_reg"}
!94 = distinct !{!94, !95, !"_ZL12x86_read_regPK8x86_regsPK9cs_x86_op: %regs"}
!95 = distinct !{!95, !"_ZL12x86_read_regPK8x86_regsPK9cs_x86_op"}
!96 = distinct !{!96, !97, !"_ZL23x86_read_source_operandPK9cs_x86_opPK8x86_regs: %regs"}
!97 = distinct !{!97, !"_ZL23x86_read_source_operandPK9cs_x86_opPK8x86_regs"}
!98 = !{!99}
!99 = distinct !{!99, !97, !"_ZL23x86_read_source_operandPK9cs_x86_opPK8x86_regs: %source"}
!100 = !{!101, !103, !105}
!101 = distinct !{!101, !102, !"_ZL13x86_write_regP8x86_regs7x86_regm: %regs"}
!102 = distinct !{!102, !"_ZL13x86_write_regP8x86_regs7x86_regm"}
!103 = distinct !{!103, !104, !"_ZL13x86_write_regP8x86_regsPK9cs_x86_opm: %regs"}
!104 = distinct !{!104, !"_ZL13x86_write_regP8x86_regsPK9cs_x86_opm"}
!105 = distinct !{!105, !106, !"_ZL29x86_write_destination_operandPK9cs_x86_opP8x86_regsm: %regs"}
!106 = distinct !{!106, !"_ZL29x86_write_destination_operandPK9cs_x86_opP8x86_regsm"}
!107 = !{!108}
!108 = distinct !{!108, !106, !"_ZL29x86_write_destination_operandPK9cs_x86_opP8x86_regsm: %destination"}
!109 = !{!110, !112, !114}
!110 = distinct !{!110, !111, !"_ZL13x86_write_regP8x86_regs7x86_regm: %regs"}
!111 = distinct !{!111, !"_ZL13x86_write_regP8x86_regs7x86_regm"}
!112 = distinct !{!112, !113, !"_ZL13x86_write_regP8x86_regsPK9cs_x86_opm: %regs"}
!113 = distinct !{!113, !"_ZL13x86_write_regP8x86_regsPK9cs_x86_opm"}
!114 = distinct !{!114, !115, !"_ZL29x86_write_destination_operandPK9cs_x86_opP8x86_regsm: %regs"}
!115 = distinct !{!115, !"_ZL29x86_write_destination_operandPK9cs_x86_opP8x86_regsm"}
!116 = !{!117}
!117 = distinct !{!117, !115, !"_ZL29x86_write_destination_operandPK9cs_x86_opP8x86_regsm: %destination"}
!118 = !{!119}
!119 = distinct !{!119, !120, !"_ZL13x86_write_regP8x86_regs7x86_regm: %regs"}
!120 = distinct !{!120, !"_ZL13x86_write_regP8x86_regs7x86_regm"}
!121 = !{i64 4195968}
!122 = !{!123}
!123 = distinct !{!123, !124, !"_ZL12x86_read_regPK8x86_regs7x86_reg: %regs"}
!124 = distinct !{!124, !"_ZL12x86_read_regPK8x86_regs7x86_reg"}
!125 = !{!126, !128}
!126 = distinct !{!126, !127, !"_ZL12x86_read_regPK8x86_regs7x86_reg: %regs"}
!127 = distinct !{!127, !"_ZL12x86_read_regPK8x86_regs7x86_reg"}
!128 = distinct !{!128, !129, !"_ZL14x86_push_valuePK10x86_configP8x86_regsmm: %regs"}
!129 = distinct !{!129, !"_ZL14x86_push_valuePK10x86_configP8x86_regsmm"}
!130 = !{!131, !133, !135}
!131 = distinct !{!131, !132, !"_ZL12x86_read_regPK8x86_regs7x86_reg: %regs"}
!132 = distinct !{!132, !"_ZL12x86_read_regPK8x86_regs7x86_reg"}
!133 = distinct !{!133, !134, !"_ZL12x86_read_regPK8x86_regsPK9cs_x86_op: %regs"}
!134 = distinct !{!134, !"_ZL12x86_read_regPK8x86_regsPK9cs_x86_op"}
!135 = distinct !{!135, !136, !"_ZL23x86_read_source_operandPK9cs_x86_opPK8x86_regs: %regs"}
!136 = distinct !{!136, !"_ZL23x86_read_source_operandPK9cs_x86_opPK8x86_regs"}
!137 = !{!138}
!138 = distinct !{!138, !136, !"_ZL23x86_read_source_operandPK9cs_x86_opPK8x86_regs: %source"}
!139 = !{!140, !142, !144}
!140 = distinct !{!140, !141, !"_ZL12x86_read_regPK8x86_regs7x86_reg: %regs"}
!141 = distinct !{!141, !"_ZL12x86_read_regPK8x86_regs7x86_reg"}
!142 = distinct !{!142, !143, !"_ZL12x86_read_regPK8x86_regsPK9cs_x86_op: %regs"}
!143 = distinct !{!143, !"_ZL12x86_read_regPK8x86_regsPK9cs_x86_op"}
!144 = distinct !{!144, !145, !"_ZL23x86_read_source_operandPK9cs_x86_opPK8x86_regs: %regs"}
!145 = distinct !{!145, !"_ZL23x86_read_source_operandPK9cs_x86_opPK8x86_regs"}
!146 = !{!147}
!147 = distinct !{!147, !145, !"_ZL23x86_read_source_operandPK9cs_x86_opPK8x86_regs: %source"}
!148 = !{!149, !149, i64 0}
!149 = !{!"int", !4, i64 0}
!150 = !{!151, !153, !155, !157}
!151 = distinct !{!151, !152, !"_ZL12x86_read_regPK8x86_regs7x86_reg: %regs"}
!152 = distinct !{!152, !"_ZL12x86_read_regPK8x86_regs7x86_reg"}
!153 = distinct !{!153, !154, !"_ZL12x86_read_regPK8x86_regsPK9cs_x86_op: %regs"}
!154 = distinct !{!154, !"_ZL12x86_read_regPK8x86_regsPK9cs_x86_op"}
!155 = distinct !{!155, !156, !"_ZL23x86_read_source_operandPK9cs_x86_opPK8x86_regs: %regs"}
!156 = distinct !{!156, !"_ZL23x86_read_source_operandPK9cs_x86_opPK8x86_regs"}
!157 = distinct !{!157, !158, !"_ZL20x86_move_zero_extendP8x86_regsPK6cs_x86: %regs"}
!158 = distinct !{!158, !"_ZL20x86_move_zero_extendP8x86_regsPK6cs_x86"}
!159 = !{!160, !161}
!160 = distinct !{!160, !156, !"_ZL23x86_read_source_operandPK9cs_x86_opPK8x86_regs: %source"}
!161 = distinct !{!161, !158, !"_ZL20x86_move_zero_extendP8x86_regsPK6cs_x86: %inst"}
!162 = !{!163, !165, !167, !157}
!163 = distinct !{!163, !164, !"_ZL13x86_write_regP8x86_regs7x86_regm: %regs"}
!164 = distinct !{!164, !"_ZL13x86_write_regP8x86_regs7x86_regm"}
!165 = distinct !{!165, !166, !"_ZL13x86_write_regP8x86_regsPK9cs_x86_opm: %regs"}
!166 = distinct !{!166, !"_ZL13x86_write_regP8x86_regsPK9cs_x86_opm"}
!167 = distinct !{!167, !168, !"_ZL29x86_write_destination_operandPK9cs_x86_opP8x86_regsm: %regs"}
!168 = distinct !{!168, !"_ZL29x86_write_destination_operandPK9cs_x86_opP8x86_regsm"}
!169 = !{!170, !161}
!170 = distinct !{!170, !168, !"_ZL29x86_write_destination_operandPK9cs_x86_opP8x86_regsm: %destination"}
!171 = !{!172, !174, !176}
!172 = distinct !{!172, !173, !"_ZL12x86_read_regPK8x86_regs7x86_reg: %regs"}
!173 = distinct !{!173, !"_ZL12x86_read_regPK8x86_regs7x86_reg"}
!174 = distinct !{!174, !175, !"_ZL12x86_read_regPK8x86_regsPK9cs_x86_op: %regs"}
!175 = distinct !{!175, !"_ZL12x86_read_regPK8x86_regsPK9cs_x86_op"}
!176 = distinct !{!176, !177, !"_ZL23x86_read_source_operandPK9cs_x86_opPK8x86_regs: %regs"}
!177 = distinct !{!177, !"_ZL23x86_read_source_operandPK9cs_x86_opPK8x86_regs"}
!178 = !{!179}
!179 = distinct !{!179, !177, !"_ZL23x86_read_source_operandPK9cs_x86_opPK8x86_regs: %source"}
!180 = !{!181, !183, !185}
!181 = distinct !{!181, !182, !"_ZL12x86_read_regPK8x86_regs7x86_reg: %regs"}
!182 = distinct !{!182, !"_ZL12x86_read_regPK8x86_regs7x86_reg"}
!183 = distinct !{!183, !184, !"_ZL12x86_read_regPK8x86_regsPK9cs_x86_op: %regs"}
!184 = distinct !{!184, !"_ZL12x86_read_regPK8x86_regsPK9cs_x86_op"}
!185 = distinct !{!185, !186, !"_ZL23x86_read_source_operandPK9cs_x86_opPK8x86_regs: %regs"}
!186 = distinct !{!186, !"_ZL23x86_read_source_operandPK9cs_x86_opPK8x86_regs"}
!187 = !{!188}
!188 = distinct !{!188, !186, !"_ZL23x86_read_source_operandPK9cs_x86_opPK8x86_regs: %source"}
!189 = !{!190, !192, !194}
!190 = distinct !{!190, !191, !"_ZL13x86_write_regP8x86_regs7x86_regm: %regs"}
!191 = distinct !{!191, !"_ZL13x86_write_regP8x86_regs7x86_regm"}
!192 = distinct !{!192, !193, !"_ZL13x86_write_regP8x86_regsPK9cs_x86_opm: %regs"}
!193 = distinct !{!193, !"_ZL13x86_write_regP8x86_regsPK9cs_x86_opm"}
!194 = distinct !{!194, !195, !"_ZL29x86_write_destination_operandPK9cs_x86_opP8x86_regsm: %regs"}
!195 = distinct !{!195, !"_ZL29x86_write_destination_operandPK9cs_x86_opP8x86_regsm"}
!196 = !{!197}
!197 = distinct !{!197, !195, !"_ZL29x86_write_destination_operandPK9cs_x86_opP8x86_regsm: %destination"}
!198 = !{!199, !201, !203}
!199 = distinct !{!199, !200, !"_ZL12x86_read_regPK8x86_regs7x86_reg: %regs"}
!200 = distinct !{!200, !"_ZL12x86_read_regPK8x86_regs7x86_reg"}
!201 = distinct !{!201, !202, !"_ZL12x86_read_regPK8x86_regsPK9cs_x86_op: %regs"}
!202 = distinct !{!202, !"_ZL12x86_read_regPK8x86_regsPK9cs_x86_op"}
!203 = distinct !{!203, !204, !"_ZL23x86_read_source_operandPK9cs_x86_opPK8x86_regs: %regs"}
!204 = distinct !{!204, !"_ZL23x86_read_source_operandPK9cs_x86_opPK8x86_regs"}
!205 = !{!206}
!206 = distinct !{!206, !204, !"_ZL23x86_read_source_operandPK9cs_x86_opPK8x86_regs: %source"}
!207 = !{!208, !210, !212}
!208 = distinct !{!208, !209, !"_ZL12x86_read_regPK8x86_regs7x86_reg: %regs"}
!209 = distinct !{!209, !"_ZL12x86_read_regPK8x86_regs7x86_reg"}
!210 = distinct !{!210, !211, !"_ZL12x86_read_regPK8x86_regsPK9cs_x86_op: %regs"}
!211 = distinct !{!211, !"_ZL12x86_read_regPK8x86_regsPK9cs_x86_op"}
!212 = distinct !{!212, !213, !"_ZL23x86_read_source_operandPK9cs_x86_opPK8x86_regs: %regs"}
!213 = distinct !{!213, !"_ZL23x86_read_source_operandPK9cs_x86_opPK8x86_regs"}
!214 = !{!215}
!215 = distinct !{!215, !213, !"_ZL23x86_read_source_operandPK9cs_x86_opPK8x86_regs: %source"}
!216 = !{!217, !219, !221, !223}
!217 = distinct !{!217, !218, !"_ZL12x86_read_regPK8x86_regs7x86_reg: %regs"}
!218 = distinct !{!218, !"_ZL12x86_read_regPK8x86_regs7x86_reg"}
!219 = distinct !{!219, !220, !"_ZL12x86_read_regPK8x86_regsPK9cs_x86_op: %regs"}
!220 = distinct !{!220, !"_ZL12x86_read_regPK8x86_regsPK9cs_x86_op"}
!221 = distinct !{!221, !222, !"_ZL23x86_read_source_operandPK9cs_x86_opPK8x86_regs: %regs"}
!222 = distinct !{!222, !"_ZL23x86_read_source_operandPK9cs_x86_opPK8x86_regs"}
!223 = distinct !{!223, !224, !"_ZL20x86_move_zero_extendP8x86_regsPK6cs_x86: %regs"}
!224 = distinct !{!224, !"_ZL20x86_move_zero_extendP8x86_regsPK6cs_x86"}
!225 = !{!226, !227}
!226 = distinct !{!226, !222, !"_ZL23x86_read_source_operandPK9cs_x86_opPK8x86_regs: %source"}
!227 = distinct !{!227, !224, !"_ZL20x86_move_zero_extendP8x86_regsPK6cs_x86: %inst"}
!228 = !{!229, !231, !233, !223}
!229 = distinct !{!229, !230, !"_ZL13x86_write_regP8x86_regs7x86_regm: %regs"}
!230 = distinct !{!230, !"_ZL13x86_write_regP8x86_regs7x86_regm"}
!231 = distinct !{!231, !232, !"_ZL13x86_write_regP8x86_regsPK9cs_x86_opm: %regs"}
!232 = distinct !{!232, !"_ZL13x86_write_regP8x86_regsPK9cs_x86_opm"}
!233 = distinct !{!233, !234, !"_ZL29x86_write_destination_operandPK9cs_x86_opP8x86_regsm: %regs"}
!234 = distinct !{!234, !"_ZL29x86_write_destination_operandPK9cs_x86_opP8x86_regsm"}
!235 = !{!236, !227}
!236 = distinct !{!236, !234, !"_ZL29x86_write_destination_operandPK9cs_x86_opP8x86_regsm: %destination"}
!237 = !{!238, !240, !242, !244}
!238 = distinct !{!238, !239, !"_ZL12x86_read_regPK8x86_regs7x86_reg: %regs"}
!239 = distinct !{!239, !"_ZL12x86_read_regPK8x86_regs7x86_reg"}
!240 = distinct !{!240, !241, !"_ZL12x86_read_regPK8x86_regsPK9cs_x86_op: %regs"}
!241 = distinct !{!241, !"_ZL12x86_read_regPK8x86_regsPK9cs_x86_op"}
!242 = distinct !{!242, !243, !"_ZL23x86_read_source_operandPK9cs_x86_opPK8x86_regs: %regs"}
!243 = distinct !{!243, !"_ZL23x86_read_source_operandPK9cs_x86_opPK8x86_regs"}
!244 = distinct !{!244, !245, !"_ZL20x86_move_zero_extendP8x86_regsPK6cs_x86: %regs"}
!245 = distinct !{!245, !"_ZL20x86_move_zero_extendP8x86_regsPK6cs_x86"}
!246 = !{!247, !248}
!247 = distinct !{!247, !243, !"_ZL23x86_read_source_operandPK9cs_x86_opPK8x86_regs: %source"}
!248 = distinct !{!248, !245, !"_ZL20x86_move_zero_extendP8x86_regsPK6cs_x86: %inst"}
!249 = !{!250, !252, !254, !244}
!250 = distinct !{!250, !251, !"_ZL13x86_write_regP8x86_regs7x86_regm: %regs"}
!251 = distinct !{!251, !"_ZL13x86_write_regP8x86_regs7x86_regm"}
!252 = distinct !{!252, !253, !"_ZL13x86_write_regP8x86_regsPK9cs_x86_opm: %regs"}
!253 = distinct !{!253, !"_ZL13x86_write_regP8x86_regsPK9cs_x86_opm"}
!254 = distinct !{!254, !255, !"_ZL29x86_write_destination_operandPK9cs_x86_opP8x86_regsm: %regs"}
!255 = distinct !{!255, !"_ZL29x86_write_destination_operandPK9cs_x86_opP8x86_regsm"}
!256 = !{!257, !248}
!257 = distinct !{!257, !255, !"_ZL29x86_write_destination_operandPK9cs_x86_opP8x86_regsm: %destination"}
!258 = !{!259, !261, !263}
!259 = distinct !{!259, !260, !"_ZL13x86_write_regP8x86_regs7x86_regm: %regs"}
!260 = distinct !{!260, !"_ZL13x86_write_regP8x86_regs7x86_regm"}
!261 = distinct !{!261, !262, !"_ZL13x86_write_regP8x86_regsPK9cs_x86_opm: %regs"}
!262 = distinct !{!262, !"_ZL13x86_write_regP8x86_regsPK9cs_x86_opm"}
!263 = distinct !{!263, !264, !"_ZL29x86_write_destination_operandPK9cs_x86_opP8x86_regsm: %regs"}
!264 = distinct !{!264, !"_ZL29x86_write_destination_operandPK9cs_x86_opP8x86_regsm"}
!265 = !{!266}
!266 = distinct !{!266, !264, !"_ZL29x86_write_destination_operandPK9cs_x86_opP8x86_regsm: %destination"}
!267 = !{!268, !270, !272}
!268 = distinct !{!268, !269, !"_ZL13x86_write_regP8x86_regs7x86_regm: %regs"}
!269 = distinct !{!269, !"_ZL13x86_write_regP8x86_regs7x86_regm"}
!270 = distinct !{!270, !271, !"_ZL13x86_write_regP8x86_regsPK9cs_x86_opm: %regs"}
!271 = distinct !{!271, !"_ZL13x86_write_regP8x86_regsPK9cs_x86_opm"}
!272 = distinct !{!272, !273, !"_ZL29x86_write_destination_operandPK9cs_x86_opP8x86_regsm: %regs"}
!273 = distinct !{!273, !"_ZL29x86_write_destination_operandPK9cs_x86_opP8x86_regsm"}
!274 = !{!275}
!275 = distinct !{!275, !273, !"_ZL29x86_write_destination_operandPK9cs_x86_opP8x86_regsm: %destination"}
!276 = !{!277, !279, !281, !283, !285, !287, !289}
!277 = distinct !{!277, !278, !"_ZL12x86_read_regPK8x86_regs7x86_reg: %regs"}
!278 = distinct !{!278, !"_ZL12x86_read_regPK8x86_regs7x86_reg"}
!279 = distinct !{!279, !280, !"_ZL12x86_read_regPK8x86_regsPK9cs_x86_op: %regs"}
!280 = distinct !{!280, !"_ZL12x86_read_regPK8x86_regsPK9cs_x86_op"}
!281 = distinct !{!281, !282, !"_ZL28x86_read_destination_operandPK9cs_x86_opPK8x86_regs: %regs"}
!282 = distinct !{!282, !"_ZL28x86_read_destination_operandPK9cs_x86_opPK8x86_regs"}
!283 = distinct !{!283, !284, !"_ZL20x86_logical_operatorIZ8x86_testE3$_2EmP8x86_regsP13x86_flags_regPK6cs_x86OT_: %regs"}
!284 = distinct !{!284, !"_ZL20x86_logical_operatorIZ8x86_testE3$_2EmP8x86_regsP13x86_flags_regPK6cs_x86OT_"}
!285 = distinct !{!285, !286, !"_ZL12x86_read_regPK8x86_regs7x86_reg: %regs"}
!286 = distinct !{!286, !"_ZL12x86_read_regPK8x86_regs7x86_reg"}
!287 = distinct !{!287, !288, !"_ZL12x86_read_regPK8x86_regsPK9cs_x86_op: %regs"}
!288 = distinct !{!288, !"_ZL12x86_read_regPK8x86_regsPK9cs_x86_op"}
!289 = distinct !{!289, !290, !"_ZL23x86_read_source_operandPK9cs_x86_opPK8x86_regs: %regs"}
!290 = distinct !{!290, !"_ZL23x86_read_source_operandPK9cs_x86_opPK8x86_regs"}
!291 = !{!292, !293}
!292 = distinct !{!292, !284, !"_ZL20x86_logical_operatorIZ8x86_testE3$_2EmP8x86_regsP13x86_flags_regPK6cs_x86OT_: %flags"}
!293 = distinct !{!293, !284, !"_ZL20x86_logical_operatorIZ8x86_testE3$_2EmP8x86_regsP13x86_flags_regPK6cs_x86OT_: %inst"}
!294 = !{!295, !297, !299}
!295 = distinct !{!295, !296, !"_ZL12x86_read_regPK8x86_regs7x86_reg: %regs"}
!296 = distinct !{!296, !"_ZL12x86_read_regPK8x86_regs7x86_reg"}
!297 = distinct !{!297, !298, !"_ZL12x86_read_regPK8x86_regsPK9cs_x86_op: %regs"}
!298 = distinct !{!298, !"_ZL12x86_read_regPK8x86_regsPK9cs_x86_op"}
!299 = distinct !{!299, !300, !"_ZL28x86_read_destination_operandPK9cs_x86_opPK8x86_regs: %regs"}
!300 = distinct !{!300, !"_ZL28x86_read_destination_operandPK9cs_x86_opPK8x86_regs"}
!301 = !{!302}
!302 = distinct !{!302, !300, !"_ZL28x86_read_destination_operandPK9cs_x86_opPK8x86_regs: %destination"}
!303 = !{!304, !306, !308}
!304 = distinct !{!304, !305, !"_ZL13x86_write_regP8x86_regs7x86_regm: %regs"}
!305 = distinct !{!305, !"_ZL13x86_write_regP8x86_regs7x86_regm"}
!306 = distinct !{!306, !307, !"_ZL13x86_write_regP8x86_regsPK9cs_x86_opm: %regs"}
!307 = distinct !{!307, !"_ZL13x86_write_regP8x86_regsPK9cs_x86_opm"}
!308 = distinct !{!308, !309, !"_ZL29x86_write_destination_operandPK9cs_x86_opP8x86_regsm: %regs"}
!309 = distinct !{!309, !"_ZL29x86_write_destination_operandPK9cs_x86_opP8x86_regsm"}
!310 = !{!311}
!311 = distinct !{!311, !309, !"_ZL29x86_write_destination_operandPK9cs_x86_opP8x86_regsm: %destination"}
!312 = !{!313, !315, !317}
!313 = distinct !{!313, !314, !"_ZL13x86_write_regP8x86_regs7x86_regm: %regs"}
!314 = distinct !{!314, !"_ZL13x86_write_regP8x86_regs7x86_regm"}
!315 = distinct !{!315, !316, !"_ZL13x86_write_regP8x86_regsPK9cs_x86_opm: %regs"}
!316 = distinct !{!316, !"_ZL13x86_write_regP8x86_regsPK9cs_x86_opm"}
!317 = distinct !{!317, !318, !"_ZL29x86_write_destination_operandPK9cs_x86_opP8x86_regsm: %regs"}
!318 = distinct !{!318, !"_ZL29x86_write_destination_operandPK9cs_x86_opP8x86_regsm"}
!319 = !{!320}
!320 = distinct !{!320, !318, !"_ZL29x86_write_destination_operandPK9cs_x86_opP8x86_regsm: %destination"}
!321 = !{!322, !324, !326}
!322 = distinct !{!322, !323, !"_ZL13x86_write_regP8x86_regs7x86_regm: %regs"}
!323 = distinct !{!323, !"_ZL13x86_write_regP8x86_regs7x86_regm"}
!324 = distinct !{!324, !325, !"_ZL13x86_write_regP8x86_regsPK9cs_x86_opm: %regs"}
!325 = distinct !{!325, !"_ZL13x86_write_regP8x86_regsPK9cs_x86_opm"}
!326 = distinct !{!326, !327, !"_ZL29x86_write_destination_operandPK9cs_x86_opP8x86_regsm: %regs"}
!327 = distinct !{!327, !"_ZL29x86_write_destination_operandPK9cs_x86_opP8x86_regsm"}
!328 = !{!329}
!329 = distinct !{!329, !327, !"_ZL29x86_write_destination_operandPK9cs_x86_opP8x86_regsm: %destination"}
!330 = !{!331, !333, !335}
!331 = distinct !{!331, !332, !"_ZL13x86_write_regP8x86_regs7x86_regm: %regs"}
!332 = distinct !{!332, !"_ZL13x86_write_regP8x86_regs7x86_regm"}
!333 = distinct !{!333, !334, !"_ZL13x86_write_regP8x86_regsPK9cs_x86_opm: %regs"}
!334 = distinct !{!334, !"_ZL13x86_write_regP8x86_regsPK9cs_x86_opm"}
!335 = distinct !{!335, !336, !"_ZL29x86_write_destination_operandPK9cs_x86_opP8x86_regsm: %regs"}
!336 = distinct !{!336, !"_ZL29x86_write_destination_operandPK9cs_x86_opP8x86_regsm"}
!337 = !{!338}
!338 = distinct !{!338, !336, !"_ZL29x86_write_destination_operandPK9cs_x86_opP8x86_regsm: %destination"}
!339 = !{!340, !342, !344}
!340 = distinct !{!340, !341, !"_ZL13x86_write_regP8x86_regs7x86_regm: %regs"}
!341 = distinct !{!341, !"_ZL13x86_write_regP8x86_regs7x86_regm"}
!342 = distinct !{!342, !343, !"_ZL13x86_write_regP8x86_regsPK9cs_x86_opm: %regs"}
!343 = distinct !{!343, !"_ZL13x86_write_regP8x86_regsPK9cs_x86_opm"}
!344 = distinct !{!344, !345, !"_ZL29x86_write_destination_operandPK9cs_x86_opP8x86_regsm: %regs"}
!345 = distinct !{!345, !"_ZL29x86_write_destination_operandPK9cs_x86_opP8x86_regsm"}
!346 = !{!347}
!347 = distinct !{!347, !345, !"_ZL29x86_write_destination_operandPK9cs_x86_opP8x86_regsm: %destination"}
!348 = !{!349, !351, !353}
!349 = distinct !{!349, !350, !"_ZL13x86_write_regP8x86_regs7x86_regm: %regs"}
!350 = distinct !{!350, !"_ZL13x86_write_regP8x86_regs7x86_regm"}
!351 = distinct !{!351, !352, !"_ZL13x86_write_regP8x86_regsPK9cs_x86_opm: %regs"}
!352 = distinct !{!352, !"_ZL13x86_write_regP8x86_regsPK9cs_x86_opm"}
!353 = distinct !{!353, !354, !"_ZL29x86_write_destination_operandPK9cs_x86_opP8x86_regsm: %regs"}
!354 = distinct !{!354, !"_ZL29x86_write_destination_operandPK9cs_x86_opP8x86_regsm"}
!355 = !{!356}
!356 = distinct !{!356, !354, !"_ZL29x86_write_destination_operandPK9cs_x86_opP8x86_regsm: %destination"}
!357 = !{!358, !360}
!358 = distinct !{!358, !359, !"_ZL13x86_write_regP8x86_regs7x86_regm: %regs"}
!359 = distinct !{!359, !"_ZL13x86_write_regP8x86_regs7x86_regm"}
!360 = distinct !{!360, !361, !"_ZL13x86_pop_valuePK10x86_configP8x86_regsm: %regs"}
!361 = distinct !{!361, !"_ZL13x86_pop_valuePK10x86_configP8x86_regsm"}
!362 = !{!363}
!363 = distinct !{!363, !364, !"_ZL13x86_write_regP8x86_regs7x86_regm: %regs"}
!364 = distinct !{!364, !"_ZL13x86_write_regP8x86_regs7x86_regm"}
!365 = !{!366, !368, !370}
!366 = distinct !{!366, !367, !"_ZL13x86_write_regP8x86_regs7x86_regm: %regs"}
!367 = distinct !{!367, !"_ZL13x86_write_regP8x86_regs7x86_regm"}
!368 = distinct !{!368, !369, !"_ZL13x86_write_regP8x86_regsPK9cs_x86_opm: %regs"}
!369 = distinct !{!369, !"_ZL13x86_write_regP8x86_regsPK9cs_x86_opm"}
!370 = distinct !{!370, !371, !"_ZL29x86_write_destination_operandPK9cs_x86_opP8x86_regsm: %regs"}
!371 = distinct !{!371, !"_ZL29x86_write_destination_operandPK9cs_x86_opP8x86_regsm"}
!372 = !{!373}
!373 = distinct !{!373, !371, !"_ZL29x86_write_destination_operandPK9cs_x86_opP8x86_regsm: %destination"}
!374 = !{!375, !377, !379, !381}
!375 = distinct !{!375, !376, !"_ZL12x86_read_regPK8x86_regs7x86_reg: %regs"}
!376 = distinct !{!376, !"_ZL12x86_read_regPK8x86_regs7x86_reg"}
!377 = distinct !{!377, !378, !"_ZL12x86_read_regPK8x86_regsPK9cs_x86_op: %regs"}
!378 = distinct !{!378, !"_ZL12x86_read_regPK8x86_regsPK9cs_x86_op"}
!379 = distinct !{!379, !380, !"_ZL23x86_read_source_operandPK9cs_x86_opPK8x86_regs: %regs"}
!380 = distinct !{!380, !"_ZL23x86_read_source_operandPK9cs_x86_opPK8x86_regs"}
!381 = distinct !{!381, !382, !"_ZL20x86_move_zero_extendP8x86_regsPK6cs_x86: %regs"}
!382 = distinct !{!382, !"_ZL20x86_move_zero_extendP8x86_regsPK6cs_x86"}
!383 = !{!384, !385}
!384 = distinct !{!384, !380, !"_ZL23x86_read_source_operandPK9cs_x86_opPK8x86_regs: %source"}
!385 = distinct !{!385, !382, !"_ZL20x86_move_zero_extendP8x86_regsPK6cs_x86: %inst"}
!386 = !{!387, !389, !391, !381}
!387 = distinct !{!387, !388, !"_ZL13x86_write_regP8x86_regs7x86_regm: %regs"}
!388 = distinct !{!388, !"_ZL13x86_write_regP8x86_regs7x86_regm"}
!389 = distinct !{!389, !390, !"_ZL13x86_write_regP8x86_regsPK9cs_x86_opm: %regs"}
!390 = distinct !{!390, !"_ZL13x86_write_regP8x86_regsPK9cs_x86_opm"}
!391 = distinct !{!391, !392, !"_ZL29x86_write_destination_operandPK9cs_x86_opP8x86_regsm: %regs"}
!392 = distinct !{!392, !"_ZL29x86_write_destination_operandPK9cs_x86_opP8x86_regsm"}
!393 = !{!394, !385}
!394 = distinct !{!394, !392, !"_ZL29x86_write_destination_operandPK9cs_x86_opP8x86_regsm: %destination"}
!395 = !{!396, !398, !400, !402}
!396 = distinct !{!396, !397, !"_ZL12x86_read_regPK8x86_regs7x86_reg: %regs"}
!397 = distinct !{!397, !"_ZL12x86_read_regPK8x86_regs7x86_reg"}
!398 = distinct !{!398, !399, !"_ZL12x86_read_regPK8x86_regsPK9cs_x86_op: %regs"}
!399 = distinct !{!399, !"_ZL12x86_read_regPK8x86_regsPK9cs_x86_op"}
!400 = distinct !{!400, !401, !"_ZL23x86_read_source_operandPK9cs_x86_opPK8x86_regs: %regs"}
!401 = distinct !{!401, !"_ZL23x86_read_source_operandPK9cs_x86_opPK8x86_regs"}
!402 = distinct !{!402, !403, !"_ZL20x86_move_zero_extendP8x86_regsPK6cs_x86: %regs"}
!403 = distinct !{!403, !"_ZL20x86_move_zero_extendP8x86_regsPK6cs_x86"}
!404 = !{!405, !406}
!405 = distinct !{!405, !401, !"_ZL23x86_read_source_operandPK9cs_x86_opPK8x86_regs: %source"}
!406 = distinct !{!406, !403, !"_ZL20x86_move_zero_extendP8x86_regsPK6cs_x86: %inst"}
!407 = !{!408, !410, !412, !402}
!408 = distinct !{!408, !409, !"_ZL13x86_write_regP8x86_regs7x86_regm: %regs"}
!409 = distinct !{!409, !"_ZL13x86_write_regP8x86_regs7x86_regm"}
!410 = distinct !{!410, !411, !"_ZL13x86_write_regP8x86_regsPK9cs_x86_opm: %regs"}
!411 = distinct !{!411, !"_ZL13x86_write_regP8x86_regsPK9cs_x86_opm"}
!412 = distinct !{!412, !413, !"_ZL29x86_write_destination_operandPK9cs_x86_opP8x86_regsm: %regs"}
!413 = distinct !{!413, !"_ZL29x86_write_destination_operandPK9cs_x86_opP8x86_regsm"}
!414 = !{!415, !406}
!415 = distinct !{!415, !413, !"_ZL29x86_write_destination_operandPK9cs_x86_opP8x86_regsm: %destination"}
!416 = !{!417, !419, !421, !423}
!417 = distinct !{!417, !418, !"_ZL12x86_read_regPK8x86_regs7x86_reg: %regs"}
!418 = distinct !{!418, !"_ZL12x86_read_regPK8x86_regs7x86_reg"}
!419 = distinct !{!419, !420, !"_ZL12x86_read_regPK8x86_regsPK9cs_x86_op: %regs"}
!420 = distinct !{!420, !"_ZL12x86_read_regPK8x86_regsPK9cs_x86_op"}
!421 = distinct !{!421, !422, !"_ZL23x86_read_source_operandPK9cs_x86_opPK8x86_regs: %regs"}
!422 = distinct !{!422, !"_ZL23x86_read_source_operandPK9cs_x86_opPK8x86_regs"}
!423 = distinct !{!423, !424, !"_ZL20x86_move_zero_extendP8x86_regsPK6cs_x86: %regs"}
!424 = distinct !{!424, !"_ZL20x86_move_zero_extendP8x86_regsPK6cs_x86"}
!425 = !{!426, !427}
!426 = distinct !{!426, !422, !"_ZL23x86_read_source_operandPK9cs_x86_opPK8x86_regs: %source"}
!427 = distinct !{!427, !424, !"_ZL20x86_move_zero_extendP8x86_regsPK6cs_x86: %inst"}
!428 = !{!429, !431, !433, !423}
!429 = distinct !{!429, !430, !"_ZL13x86_write_regP8x86_regs7x86_regm: %regs"}
!430 = distinct !{!430, !"_ZL13x86_write_regP8x86_regs7x86_regm"}
!431 = distinct !{!431, !432, !"_ZL13x86_write_regP8x86_regsPK9cs_x86_opm: %regs"}
!432 = distinct !{!432, !"_ZL13x86_write_regP8x86_regsPK9cs_x86_opm"}
!433 = distinct !{!433, !434, !"_ZL29x86_write_destination_operandPK9cs_x86_opP8x86_regsm: %regs"}
!434 = distinct !{!434, !"_ZL29x86_write_destination_operandPK9cs_x86_opP8x86_regsm"}
!435 = !{!436, !427}
!436 = distinct !{!436, !434, !"_ZL29x86_write_destination_operandPK9cs_x86_opP8x86_regsm: %destination"}
!437 = !{!438, !440, !442, !444}
!438 = distinct !{!438, !439, !"_ZL12x86_read_regPK8x86_regs7x86_reg: %regs"}
!439 = distinct !{!439, !"_ZL12x86_read_regPK8x86_regs7x86_reg"}
!440 = distinct !{!440, !441, !"_ZL25x86_get_effective_addressPK8x86_regsPK9cs_x86_op: %regs"}
!441 = distinct !{!441, !"_ZL25x86_get_effective_addressPK8x86_regsPK9cs_x86_op"}
!442 = distinct !{!442, !443, !"_ZL12x86_read_memPK8x86_regsPK9cs_x86_op: %regs"}
!443 = distinct !{!443, !"_ZL12x86_read_memPK8x86_regsPK9cs_x86_op"}
!444 = distinct !{!444, !445, !"_ZL23x86_read_source_operandPK9cs_x86_opPK8x86_regs: %regs"}
!445 = distinct !{!445, !"_ZL23x86_read_source_operandPK9cs_x86_opPK8x86_regs"}
!446 = !{!447, !448, !449}
!447 = distinct !{!447, !441, !"_ZL25x86_get_effective_addressPK8x86_regsPK9cs_x86_op: %op"}
!448 = distinct !{!448, !443, !"_ZL12x86_read_memPK8x86_regsPK9cs_x86_op: %op"}
!449 = distinct !{!449, !445, !"_ZL23x86_read_source_operandPK9cs_x86_opPK8x86_regs: %source"}
!450 = !{!451, !453, !455}
!451 = distinct !{!451, !452, !"_ZL12x86_read_regPK8x86_regs7x86_reg: %regs"}
!452 = distinct !{!452, !"_ZL12x86_read_regPK8x86_regs7x86_reg"}
!453 = distinct !{!453, !454, !"_ZL12x86_read_regPK8x86_regsPK9cs_x86_op: %regs"}
!454 = distinct !{!454, !"_ZL12x86_read_regPK8x86_regsPK9cs_x86_op"}
!455 = distinct !{!455, !456, !"_ZL28x86_read_destination_operandPK9cs_x86_opPK8x86_regs: %regs"}
!456 = distinct !{!456, !"_ZL28x86_read_destination_operandPK9cs_x86_opPK8x86_regs"}
!457 = !{!458}
!458 = distinct !{!458, !456, !"_ZL28x86_read_destination_operandPK9cs_x86_opPK8x86_regs: %destination"}
!459 = !{!460, !462, !464}
!460 = distinct !{!460, !461, !"_ZL13x86_write_regP8x86_regs7x86_regm: %regs"}
!461 = distinct !{!461, !"_ZL13x86_write_regP8x86_regs7x86_regm"}
!462 = distinct !{!462, !463, !"_ZL13x86_write_regP8x86_regsPK9cs_x86_opm: %regs"}
!463 = distinct !{!463, !"_ZL13x86_write_regP8x86_regsPK9cs_x86_opm"}
!464 = distinct !{!464, !465, !"_ZL29x86_write_destination_operandPK9cs_x86_opP8x86_regsm: %regs"}
!465 = distinct !{!465, !"_ZL29x86_write_destination_operandPK9cs_x86_opP8x86_regsm"}
!466 = !{!467}
!467 = distinct !{!467, !465, !"_ZL29x86_write_destination_operandPK9cs_x86_opP8x86_regsm: %destination"}
!468 = !{!469, !471, !473}
!469 = distinct !{!469, !470, !"_ZL12x86_read_regPK8x86_regs7x86_reg: %regs"}
!470 = distinct !{!470, !"_ZL12x86_read_regPK8x86_regs7x86_reg"}
!471 = distinct !{!471, !472, !"_ZL12x86_read_regPK8x86_regsPK9cs_x86_op: %regs"}
!472 = distinct !{!472, !"_ZL12x86_read_regPK8x86_regsPK9cs_x86_op"}
!473 = distinct !{!473, !474, !"_ZL23x86_read_source_operandPK9cs_x86_opPK8x86_regs: %regs"}
!474 = distinct !{!474, !"_ZL23x86_read_source_operandPK9cs_x86_opPK8x86_regs"}
!475 = !{!476}
!476 = distinct !{!476, !474, !"_ZL23x86_read_source_operandPK9cs_x86_opPK8x86_regs: %source"}
!477 = !{i64 4195488}
!478 = !{!479}
!479 = distinct !{!479, !480, !"_ZL12x86_read_regPK8x86_regs7x86_reg: %regs"}
!480 = distinct !{!480, !"_ZL12x86_read_regPK8x86_regs7x86_reg"}
!481 = !{!482, !484}
!482 = distinct !{!482, !483, !"_ZL12x86_read_regPK8x86_regs7x86_reg: %regs"}
!483 = distinct !{!483, !"_ZL12x86_read_regPK8x86_regs7x86_reg"}
!484 = distinct !{!484, !485, !"_ZL14x86_push_valuePK10x86_configP8x86_regsmm: %regs"}
!485 = distinct !{!485, !"_ZL14x86_push_valuePK10x86_configP8x86_regsmm"}
!486 = !{!487, !489, !491}
!487 = distinct !{!487, !488, !"_ZL13x86_write_regP8x86_regs7x86_regm: %regs"}
!488 = distinct !{!488, !"_ZL13x86_write_regP8x86_regs7x86_regm"}
!489 = distinct !{!489, !490, !"_ZL13x86_write_regP8x86_regsPK9cs_x86_opm: %regs"}
!490 = distinct !{!490, !"_ZL13x86_write_regP8x86_regsPK9cs_x86_opm"}
!491 = distinct !{!491, !492, !"_ZL29x86_write_destination_operandPK9cs_x86_opP8x86_regsm: %regs"}
!492 = distinct !{!492, !"_ZL29x86_write_destination_operandPK9cs_x86_opP8x86_regsm"}
!493 = !{!494}
!494 = distinct !{!494, !492, !"_ZL29x86_write_destination_operandPK9cs_x86_opP8x86_regsm: %destination"}
!495 = !{!496, !498, !500, !502}
!496 = distinct !{!496, !497, !"_ZL13x86_write_regP8x86_regs7x86_regm: %regs"}
!497 = distinct !{!497, !"_ZL13x86_write_regP8x86_regs7x86_regm"}
!498 = distinct !{!498, !499, !"_ZL13x86_write_regP8x86_regsPK9cs_x86_opm: %regs"}
!499 = distinct !{!499, !"_ZL13x86_write_regP8x86_regsPK9cs_x86_opm"}
!500 = distinct !{!500, !501, !"_ZL29x86_write_destination_operandPK9cs_x86_opP8x86_regsm: %regs"}
!501 = distinct !{!501, !"_ZL29x86_write_destination_operandPK9cs_x86_opP8x86_regsm"}
!502 = distinct !{!502, !503, !"_ZL20x86_move_zero_extendP8x86_regsPK6cs_x86: %regs"}
!503 = distinct !{!503, !"_ZL20x86_move_zero_extendP8x86_regsPK6cs_x86"}
!504 = !{!505, !506}
!505 = distinct !{!505, !501, !"_ZL29x86_write_destination_operandPK9cs_x86_opP8x86_regsm: %destination"}
!506 = distinct !{!506, !503, !"_ZL20x86_move_zero_extendP8x86_regsPK6cs_x86: %inst"}
!507 = !{!508, !510}
!508 = distinct !{!508, !509, !"_ZL13x86_write_regP8x86_regs7x86_regm: %regs"}
!509 = distinct !{!509, !"_ZL13x86_write_regP8x86_regs7x86_regm"}
!510 = distinct !{!510, !511, !"_ZL13x86_pop_valuePK10x86_configP8x86_regsm: %regs"}
!511 = distinct !{!511, !"_ZL13x86_pop_valuePK10x86_configP8x86_regsm"}
!512 = !{!513}
!513 = distinct !{!513, !514, !"_ZL13x86_write_regP8x86_regs7x86_regm: %regs"}
!514 = distinct !{!514, !"_ZL13x86_write_regP8x86_regs7x86_regm"}
!515 = !{!516, !518, !520}
!516 = distinct !{!516, !517, !"_ZL12x86_read_regPK8x86_regs7x86_reg: %regs"}
!517 = distinct !{!517, !"_ZL12x86_read_regPK8x86_regs7x86_reg"}
!518 = distinct !{!518, !519, !"_ZL12x86_read_regPK8x86_regsPK9cs_x86_op: %regs"}
!519 = distinct !{!519, !"_ZL12x86_read_regPK8x86_regsPK9cs_x86_op"}
!520 = distinct !{!520, !521, !"_ZL28x86_read_destination_operandPK9cs_x86_opPK8x86_regs: %regs"}
!521 = distinct !{!521, !"_ZL28x86_read_destination_operandPK9cs_x86_opPK8x86_regs"}
!522 = !{!523}
!523 = distinct !{!523, !521, !"_ZL28x86_read_destination_operandPK9cs_x86_opPK8x86_regs: %destination"}
!524 = !{i64 4195792}
!525 = !{!526}
!526 = distinct !{!526, !527, !"_ZL12x86_read_regPK8x86_regs7x86_reg: %regs"}
!527 = distinct !{!527, !"_ZL12x86_read_regPK8x86_regs7x86_reg"}
!528 = !{!529, !531}
!529 = distinct !{!529, !530, !"_ZL12x86_read_regPK8x86_regs7x86_reg: %regs"}
!530 = distinct !{!530, !"_ZL12x86_read_regPK8x86_regs7x86_reg"}
!531 = distinct !{!531, !532, !"_ZL14x86_push_valuePK10x86_configP8x86_regsmm: %regs"}
!532 = distinct !{!532, !"_ZL14x86_push_valuePK10x86_configP8x86_regsmm"}
!533 = !{!534, !531}
!534 = distinct !{!534, !535, !"_ZL13x86_write_regP8x86_regs7x86_regm: %regs"}
!535 = distinct !{!535, !"_ZL13x86_write_regP8x86_regs7x86_regm"}
!536 = !{!537, !539}
!537 = distinct !{!537, !538, !"_ZL13x86_write_regP8x86_regs7x86_regm: %regs"}
!538 = distinct !{!538, !"_ZL13x86_write_regP8x86_regs7x86_regm"}
!539 = distinct !{!539, !540, !"_ZL13x86_pop_valuePK10x86_configP8x86_regsm: %regs"}
!540 = distinct !{!540, !"_ZL13x86_pop_valuePK10x86_configP8x86_regsm"}
!541 = !{!542}
!542 = distinct !{!542, !543, !"_ZL13x86_write_regP8x86_regs7x86_regm: %regs"}
!543 = distinct !{!543, !"_ZL13x86_write_regP8x86_regs7x86_regm"}
!544 = !{!545, !547, !549}
!545 = distinct !{!545, !546, !"_ZL12x86_read_regPK8x86_regs7x86_reg: %regs"}
!546 = distinct !{!546, !"_ZL12x86_read_regPK8x86_regs7x86_reg"}
!547 = distinct !{!547, !548, !"_ZL12x86_read_regPK8x86_regsPK9cs_x86_op: %regs"}
!548 = distinct !{!548, !"_ZL12x86_read_regPK8x86_regsPK9cs_x86_op"}
!549 = distinct !{!549, !550, !"_ZL23x86_read_source_operandPK9cs_x86_opPK8x86_regs: %regs"}
!550 = distinct !{!550, !"_ZL23x86_read_source_operandPK9cs_x86_opPK8x86_regs"}
!551 = !{!552}
!552 = distinct !{!552, !550, !"_ZL23x86_read_source_operandPK9cs_x86_opPK8x86_regs: %source"}
!553 = !{!554, !556}
!554 = distinct !{!554, !555, !"_ZL13x86_write_regP8x86_regs7x86_regm: %regs"}
!555 = distinct !{!555, !"_ZL13x86_write_regP8x86_regs7x86_regm"}
!556 = distinct !{!556, !557, !"_ZL14x86_push_valuePK10x86_configP8x86_regsmm: %regs"}
!557 = distinct !{!557, !"_ZL14x86_push_valuePK10x86_configP8x86_regsmm"}
!558 = !{!559, !561, !563, !565}
!559 = distinct !{!559, !560, !"_ZL13x86_write_regP8x86_regs7x86_regm: %regs"}
!560 = distinct !{!560, !"_ZL13x86_write_regP8x86_regs7x86_regm"}
!561 = distinct !{!561, !562, !"_ZL13x86_write_regP8x86_regsPK9cs_x86_opm: %regs"}
!562 = distinct !{!562, !"_ZL13x86_write_regP8x86_regsPK9cs_x86_opm"}
!563 = distinct !{!563, !564, !"_ZL29x86_write_destination_operandPK9cs_x86_opP8x86_regsm: %regs"}
!564 = distinct !{!564, !"_ZL29x86_write_destination_operandPK9cs_x86_opP8x86_regsm"}
!565 = distinct !{!565, !566, !"_ZL20x86_move_zero_extendP8x86_regsPK6cs_x86: %regs"}
!566 = distinct !{!566, !"_ZL20x86_move_zero_extendP8x86_regsPK6cs_x86"}
!567 = !{!568, !569}
!568 = distinct !{!568, !564, !"_ZL29x86_write_destination_operandPK9cs_x86_opP8x86_regsm: %destination"}
!569 = distinct !{!569, !566, !"_ZL20x86_move_zero_extendP8x86_regsPK6cs_x86: %inst"}
!570 = !{!571, !573}
!571 = distinct !{!571, !572, !"_ZL12x86_read_regPK8x86_regs7x86_reg: %regs"}
!572 = distinct !{!572, !"_ZL12x86_read_regPK8x86_regs7x86_reg"}
!573 = distinct !{!573, !574, !"_ZL13x86_pop_valuePK10x86_configP8x86_regsm: %regs"}
!574 = distinct !{!574, !"_ZL13x86_pop_valuePK10x86_configP8x86_regsm"}
!575 = !{!576, !573}
!576 = distinct !{!576, !577, !"_ZL13x86_write_regP8x86_regs7x86_regm: %regs"}
!577 = distinct !{!577, !"_ZL13x86_write_regP8x86_regs7x86_regm"}
!578 = !{!579, !581, !583}
!579 = distinct !{!579, !580, !"_ZL13x86_write_regP8x86_regs7x86_regm: %regs"}
!580 = distinct !{!580, !"_ZL13x86_write_regP8x86_regs7x86_regm"}
!581 = distinct !{!581, !582, !"_ZL13x86_write_regP8x86_regsPK9cs_x86_opm: %regs"}
!582 = distinct !{!582, !"_ZL13x86_write_regP8x86_regsPK9cs_x86_opm"}
!583 = distinct !{!583, !584, !"_ZL29x86_write_destination_operandPK9cs_x86_opP8x86_regsm: %regs"}
!584 = distinct !{!584, !"_ZL29x86_write_destination_operandPK9cs_x86_opP8x86_regsm"}
!585 = !{!586}
!586 = distinct !{!586, !584, !"_ZL29x86_write_destination_operandPK9cs_x86_opP8x86_regsm: %destination"}
!587 = !{i64 4195664}
!588 = !{!589}
!589 = distinct !{!589, !590, !"_ZL12x86_read_regPK8x86_regs7x86_reg: %regs"}
!590 = distinct !{!590, !"_ZL12x86_read_regPK8x86_regs7x86_reg"}
!591 = !{!592, !594}
!592 = distinct !{!592, !593, !"_ZL12x86_read_regPK8x86_regs7x86_reg: %regs"}
!593 = distinct !{!593, !"_ZL12x86_read_regPK8x86_regs7x86_reg"}
!594 = distinct !{!594, !595, !"_ZL14x86_push_valuePK10x86_configP8x86_regsmm: %regs"}
!595 = distinct !{!595, !"_ZL14x86_push_valuePK10x86_configP8x86_regsmm"}
!596 = !{!597, !599, !601}
!597 = distinct !{!597, !598, !"_ZL12x86_read_regPK8x86_regs7x86_reg: %regs"}
!598 = distinct !{!598, !"_ZL12x86_read_regPK8x86_regs7x86_reg"}
!599 = distinct !{!599, !600, !"_ZL12x86_read_regPK8x86_regsPK9cs_x86_op: %regs"}
!600 = distinct !{!600, !"_ZL12x86_read_regPK8x86_regsPK9cs_x86_op"}
!601 = distinct !{!601, !602, !"_ZL23x86_read_source_operandPK9cs_x86_opPK8x86_regs: %regs"}
!602 = distinct !{!602, !"_ZL23x86_read_source_operandPK9cs_x86_opPK8x86_regs"}
!603 = !{!604}
!604 = distinct !{!604, !602, !"_ZL23x86_read_source_operandPK9cs_x86_opPK8x86_regs: %source"}
!605 = !{!606, !608, !610}
!606 = distinct !{!606, !607, !"_ZL13x86_write_regP8x86_regs7x86_regm: %regs"}
!607 = distinct !{!607, !"_ZL13x86_write_regP8x86_regs7x86_regm"}
!608 = distinct !{!608, !609, !"_ZL13x86_write_regP8x86_regsPK9cs_x86_opm: %regs"}
!609 = distinct !{!609, !"_ZL13x86_write_regP8x86_regsPK9cs_x86_opm"}
!610 = distinct !{!610, !611, !"_ZL29x86_write_destination_operandPK9cs_x86_opP8x86_regsm: %regs"}
!611 = distinct !{!611, !"_ZL29x86_write_destination_operandPK9cs_x86_opP8x86_regsm"}
!612 = !{!613}
!613 = distinct !{!613, !611, !"_ZL29x86_write_destination_operandPK9cs_x86_opP8x86_regsm: %destination"}
!614 = !{!615}
!615 = distinct !{!615, !616, !"_ZL13x86_write_regP8x86_regs7x86_regm: %regs"}
!616 = distinct !{!616, !"_ZL13x86_write_regP8x86_regs7x86_regm"}
!617 = !{i64 4195616}
!618 = !{!619}
!619 = distinct !{!619, !620, !"_ZL12x86_read_regPK8x86_regs7x86_reg: %regs"}
!620 = distinct !{!620, !"_ZL12x86_read_regPK8x86_regs7x86_reg"}
!621 = !{!622, !624}
!622 = distinct !{!622, !623, !"_ZL12x86_read_regPK8x86_regs7x86_reg: %regs"}
!623 = distinct !{!623, !"_ZL12x86_read_regPK8x86_regs7x86_reg"}
!624 = distinct !{!624, !625, !"_ZL14x86_push_valuePK10x86_configP8x86_regsmm: %regs"}
!625 = distinct !{!625, !"_ZL14x86_push_valuePK10x86_configP8x86_regsmm"}
!626 = !{!627, !629, !631}
!627 = distinct !{!627, !628, !"_ZL13x86_write_regP8x86_regs7x86_regm: %regs"}
!628 = distinct !{!628, !"_ZL13x86_write_regP8x86_regs7x86_regm"}
!629 = distinct !{!629, !630, !"_ZL13x86_write_regP8x86_regsPK9cs_x86_opm: %regs"}
!630 = distinct !{!630, !"_ZL13x86_write_regP8x86_regsPK9cs_x86_opm"}
!631 = distinct !{!631, !632, !"_ZL29x86_write_destination_operandPK9cs_x86_opP8x86_regsm: %regs"}
!632 = distinct !{!632, !"_ZL29x86_write_destination_operandPK9cs_x86_opP8x86_regsm"}
!633 = !{!634}
!634 = distinct !{!634, !632, !"_ZL29x86_write_destination_operandPK9cs_x86_opP8x86_regsm: %destination"}
!635 = !{!636, !638, !640, !642}
!636 = distinct !{!636, !637, !"_ZL12x86_read_regPK8x86_regs7x86_reg: %regs"}
!637 = distinct !{!637, !"_ZL12x86_read_regPK8x86_regs7x86_reg"}
!638 = distinct !{!638, !639, !"_ZL12x86_read_regPK8x86_regsPK9cs_x86_op: %regs"}
!639 = distinct !{!639, !"_ZL12x86_read_regPK8x86_regsPK9cs_x86_op"}
!640 = distinct !{!640, !641, !"_ZL23x86_read_source_operandPK9cs_x86_opPK8x86_regs: %regs"}
!641 = distinct !{!641, !"_ZL23x86_read_source_operandPK9cs_x86_opPK8x86_regs"}
!642 = distinct !{!642, !643, !"_ZL20x86_move_zero_extendP8x86_regsPK6cs_x86: %regs"}
!643 = distinct !{!643, !"_ZL20x86_move_zero_extendP8x86_regsPK6cs_x86"}
!644 = !{!645, !646}
!645 = distinct !{!645, !641, !"_ZL23x86_read_source_operandPK9cs_x86_opPK8x86_regs: %source"}
!646 = distinct !{!646, !643, !"_ZL20x86_move_zero_extendP8x86_regsPK6cs_x86: %inst"}
!647 = !{!648, !650, !652, !642}
!648 = distinct !{!648, !649, !"_ZL13x86_write_regP8x86_regs7x86_regm: %regs"}
!649 = distinct !{!649, !"_ZL13x86_write_regP8x86_regs7x86_regm"}
!650 = distinct !{!650, !651, !"_ZL13x86_write_regP8x86_regsPK9cs_x86_opm: %regs"}
!651 = distinct !{!651, !"_ZL13x86_write_regP8x86_regsPK9cs_x86_opm"}
!652 = distinct !{!652, !653, !"_ZL29x86_write_destination_operandPK9cs_x86_opP8x86_regsm: %regs"}
!653 = distinct !{!653, !"_ZL29x86_write_destination_operandPK9cs_x86_opP8x86_regsm"}
!654 = !{!655, !646}
!655 = distinct !{!655, !653, !"_ZL29x86_write_destination_operandPK9cs_x86_opP8x86_regsm: %destination"}
!656 = !{!657, !659, !661}
!657 = distinct !{!657, !658, !"_ZL13x86_write_regP8x86_regs7x86_regm: %regs"}
!658 = distinct !{!658, !"_ZL13x86_write_regP8x86_regs7x86_regm"}
!659 = distinct !{!659, !660, !"_ZL13x86_write_regP8x86_regsPK9cs_x86_opm: %regs"}
!660 = distinct !{!660, !"_ZL13x86_write_regP8x86_regsPK9cs_x86_opm"}
!661 = distinct !{!661, !662, !"_ZL29x86_write_destination_operandPK9cs_x86_opP8x86_regsm: %regs"}
!662 = distinct !{!662, !"_ZL29x86_write_destination_operandPK9cs_x86_opP8x86_regsm"}
!663 = !{!664}
!664 = distinct !{!664, !662, !"_ZL29x86_write_destination_operandPK9cs_x86_opP8x86_regsm: %destination"}
!665 = !{!666, !668, !670, !672}
!666 = distinct !{!666, !667, !"_ZL13x86_write_regP8x86_regs7x86_regm: %regs"}
!667 = distinct !{!667, !"_ZL13x86_write_regP8x86_regs7x86_regm"}
!668 = distinct !{!668, !669, !"_ZL13x86_write_regP8x86_regsPK9cs_x86_opm: %regs"}
!669 = distinct !{!669, !"_ZL13x86_write_regP8x86_regsPK9cs_x86_opm"}
!670 = distinct !{!670, !671, !"_ZL29x86_write_destination_operandPK9cs_x86_opP8x86_regsm: %regs"}
!671 = distinct !{!671, !"_ZL29x86_write_destination_operandPK9cs_x86_opP8x86_regsm"}
!672 = distinct !{!672, !673, !"_ZL20x86_move_zero_extendP8x86_regsPK6cs_x86: %regs"}
!673 = distinct !{!673, !"_ZL20x86_move_zero_extendP8x86_regsPK6cs_x86"}
!674 = !{!675, !676}
!675 = distinct !{!675, !671, !"_ZL29x86_write_destination_operandPK9cs_x86_opP8x86_regsm: %destination"}
!676 = distinct !{!676, !673, !"_ZL20x86_move_zero_extendP8x86_regsPK6cs_x86: %inst"}
!677 = !{!678, !680, !682}
!678 = distinct !{!678, !679, !"_ZL12x86_read_regPK8x86_regs7x86_reg: %regs"}
!679 = distinct !{!679, !"_ZL12x86_read_regPK8x86_regs7x86_reg"}
!680 = distinct !{!680, !681, !"_ZL12x86_read_regPK8x86_regsPK9cs_x86_op: %regs"}
!681 = distinct !{!681, !"_ZL12x86_read_regPK8x86_regsPK9cs_x86_op"}
!682 = distinct !{!682, !683, !"_ZL23x86_read_source_operandPK9cs_x86_opPK8x86_regs: %regs"}
!683 = distinct !{!683, !"_ZL23x86_read_source_operandPK9cs_x86_opPK8x86_regs"}
!684 = !{!685}
!685 = distinct !{!685, !683, !"_ZL23x86_read_source_operandPK9cs_x86_opPK8x86_regs: %source"}
!686 = !{!687, !689}
!687 = distinct !{!687, !688, !"_ZL13x86_write_regP8x86_regs7x86_regm: %regs"}
!688 = distinct !{!688, !"_ZL13x86_write_regP8x86_regs7x86_regm"}
!689 = distinct !{!689, !690, !"_ZL14x86_push_valuePK10x86_configP8x86_regsmm: %regs"}
!690 = distinct !{!690, !"_ZL14x86_push_valuePK10x86_configP8x86_regsmm"}
!691 = !{!692, !694, !696, !698}
!692 = distinct !{!692, !693, !"_ZL13x86_write_regP8x86_regs7x86_regm: %regs"}
!693 = distinct !{!693, !"_ZL13x86_write_regP8x86_regs7x86_regm"}
!694 = distinct !{!694, !695, !"_ZL13x86_write_regP8x86_regsPK9cs_x86_opm: %regs"}
!695 = distinct !{!695, !"_ZL13x86_write_regP8x86_regsPK9cs_x86_opm"}
!696 = distinct !{!696, !697, !"_ZL29x86_write_destination_operandPK9cs_x86_opP8x86_regsm: %regs"}
!697 = distinct !{!697, !"_ZL29x86_write_destination_operandPK9cs_x86_opP8x86_regsm"}
!698 = distinct !{!698, !699, !"_ZL20x86_move_zero_extendP8x86_regsPK6cs_x86: %regs"}
!699 = distinct !{!699, !"_ZL20x86_move_zero_extendP8x86_regsPK6cs_x86"}
!700 = !{!701, !702}
!701 = distinct !{!701, !697, !"_ZL29x86_write_destination_operandPK9cs_x86_opP8x86_regsm: %destination"}
!702 = distinct !{!702, !699, !"_ZL20x86_move_zero_extendP8x86_regsPK6cs_x86: %inst"}
!703 = !{!704, !706, !708, !710}
!704 = distinct !{!704, !705, !"_ZL13x86_write_regP8x86_regs7x86_regm: %regs"}
!705 = distinct !{!705, !"_ZL13x86_write_regP8x86_regs7x86_regm"}
!706 = distinct !{!706, !707, !"_ZL13x86_write_regP8x86_regsPK9cs_x86_opm: %regs"}
!707 = distinct !{!707, !"_ZL13x86_write_regP8x86_regsPK9cs_x86_opm"}
!708 = distinct !{!708, !709, !"_ZL29x86_write_destination_operandPK9cs_x86_opP8x86_regsm: %regs"}
!709 = distinct !{!709, !"_ZL29x86_write_destination_operandPK9cs_x86_opP8x86_regsm"}
!710 = distinct !{!710, !711, !"_ZL20x86_move_zero_extendP8x86_regsPK6cs_x86: %regs"}
!711 = distinct !{!711, !"_ZL20x86_move_zero_extendP8x86_regsPK6cs_x86"}
!712 = !{!713, !714}
!713 = distinct !{!713, !709, !"_ZL29x86_write_destination_operandPK9cs_x86_opP8x86_regsm: %destination"}
!714 = distinct !{!714, !711, !"_ZL20x86_move_zero_extendP8x86_regsPK6cs_x86: %inst"}
!715 = !{!716, !718, !720, !722}
!716 = distinct !{!716, !717, !"_ZL13x86_write_regP8x86_regs7x86_regm: %regs"}
!717 = distinct !{!717, !"_ZL13x86_write_regP8x86_regs7x86_regm"}
!718 = distinct !{!718, !719, !"_ZL13x86_write_regP8x86_regsPK9cs_x86_opm: %regs"}
!719 = distinct !{!719, !"_ZL13x86_write_regP8x86_regsPK9cs_x86_opm"}
!720 = distinct !{!720, !721, !"_ZL29x86_write_destination_operandPK9cs_x86_opP8x86_regsm: %regs"}
!721 = distinct !{!721, !"_ZL29x86_write_destination_operandPK9cs_x86_opP8x86_regsm"}
!722 = distinct !{!722, !723, !"_ZL20x86_move_zero_extendP8x86_regsPK6cs_x86: %regs"}
!723 = distinct !{!723, !"_ZL20x86_move_zero_extendP8x86_regsPK6cs_x86"}
!724 = !{!725, !726}
!725 = distinct !{!725, !721, !"_ZL29x86_write_destination_operandPK9cs_x86_opP8x86_regsm: %destination"}
!726 = distinct !{!726, !723, !"_ZL20x86_move_zero_extendP8x86_regsPK6cs_x86: %inst"}
!727 = !{i64 4195568}
!728 = !{!"__libc_start_main"}
!729 = !{!730}
!730 = distinct !{!730, !731, !"_ZL12x86_read_regPK8x86_regs7x86_reg: %regs"}
!731 = distinct !{!731, !"_ZL12x86_read_regPK8x86_regs7x86_reg"}
!732 = !{!733, !735}
!733 = distinct !{!733, !734, !"_ZL12x86_read_regPK8x86_regs7x86_reg: %regs"}
!734 = distinct !{!734, !"_ZL12x86_read_regPK8x86_regs7x86_reg"}
!735 = distinct !{!735, !736, !"_ZL14x86_push_valuePK10x86_configP8x86_regsmm: %regs"}
!736 = distinct !{!736, !"_ZL14x86_push_valuePK10x86_configP8x86_regsmm"}
!737 = !{!738, !735}
!738 = distinct !{!738, !739, !"_ZL13x86_write_regP8x86_regs7x86_regm: %regs"}
!739 = distinct !{!739, !"_ZL13x86_write_regP8x86_regs7x86_regm"}
!740 = !{i64 4196084}
!741 = !{!742}
!742 = distinct !{!742, !743, !"_ZL12x86_read_regPK8x86_regs7x86_reg: %regs"}
!743 = distinct !{!743, !"_ZL12x86_read_regPK8x86_regs7x86_reg"}
!744 = !{!745, !747}
!745 = distinct !{!745, !746, !"_ZL12x86_read_regPK8x86_regs7x86_reg: %regs"}
!746 = distinct !{!746, !"_ZL12x86_read_regPK8x86_regs7x86_reg"}
!747 = distinct !{!747, !748, !"_ZL14x86_push_valuePK10x86_configP8x86_regsmm: %regs"}
!748 = distinct !{!748, !"_ZL14x86_push_valuePK10x86_configP8x86_regsmm"}
!749 = !{i64 4195862}
!750 = !{!751}
!751 = distinct !{!751, !752, !"_ZL12x86_read_regPK8x86_regs7x86_reg: %regs"}
!752 = distinct !{!752, !"_ZL12x86_read_regPK8x86_regs7x86_reg"}
!753 = !{!754, !756}
!754 = distinct !{!754, !755, !"_ZL12x86_read_regPK8x86_regs7x86_reg: %regs"}
!755 = distinct !{!755, !"_ZL12x86_read_regPK8x86_regs7x86_reg"}
!756 = distinct !{!756, !757, !"_ZL14x86_push_valuePK10x86_configP8x86_regsmm: %regs"}
!757 = distinct !{!757, !"_ZL14x86_push_valuePK10x86_configP8x86_regsmm"}
!758 = !{!759, !761, !763}
!759 = distinct !{!759, !760, !"_ZL13x86_write_regP8x86_regs7x86_regm: %regs"}
!760 = distinct !{!760, !"_ZL13x86_write_regP8x86_regs7x86_regm"}
!761 = distinct !{!761, !762, !"_ZL13x86_write_regP8x86_regsPK9cs_x86_opm: %regs"}
!762 = distinct !{!762, !"_ZL13x86_write_regP8x86_regsPK9cs_x86_opm"}
!763 = distinct !{!763, !764, !"_ZL29x86_write_destination_operandPK9cs_x86_opP8x86_regsm: %regs"}
!764 = distinct !{!764, !"_ZL29x86_write_destination_operandPK9cs_x86_opP8x86_regsm"}
!765 = !{!766}
!766 = distinct !{!766, !764, !"_ZL29x86_write_destination_operandPK9cs_x86_opP8x86_regsm: %destination"}
!767 = !{!768, !770, !772, !774, !776}
!768 = distinct !{!768, !769, !"_ZL12x86_read_regPK8x86_regs7x86_reg: %regs"}
!769 = distinct !{!769, !"_ZL12x86_read_regPK8x86_regs7x86_reg"}
!770 = distinct !{!770, !771, !"_ZL25x86_get_effective_addressPK8x86_regsPK9cs_x86_op: %regs"}
!771 = distinct !{!771, !"_ZL25x86_get_effective_addressPK8x86_regsPK9cs_x86_op"}
!772 = distinct !{!772, !773, !"_ZL12x86_read_memPK8x86_regsPK9cs_x86_op: %regs"}
!773 = distinct !{!773, !"_ZL12x86_read_memPK8x86_regsPK9cs_x86_op"}
!774 = distinct !{!774, !775, !"_ZL23x86_read_source_operandPK9cs_x86_opPK8x86_regs: %regs"}
!775 = distinct !{!775, !"_ZL23x86_read_source_operandPK9cs_x86_opPK8x86_regs"}
!776 = distinct !{!776, !777, !"_ZL20x86_move_zero_extendP8x86_regsPK6cs_x86: %regs"}
!777 = distinct !{!777, !"_ZL20x86_move_zero_extendP8x86_regsPK6cs_x86"}
!778 = !{!779, !780, !781, !782}
!779 = distinct !{!779, !771, !"_ZL25x86_get_effective_addressPK8x86_regsPK9cs_x86_op: %op"}
!780 = distinct !{!780, !773, !"_ZL12x86_read_memPK8x86_regsPK9cs_x86_op: %op"}
!781 = distinct !{!781, !775, !"_ZL23x86_read_source_operandPK9cs_x86_opPK8x86_regs: %source"}
!782 = distinct !{!782, !777, !"_ZL20x86_move_zero_extendP8x86_regsPK6cs_x86: %inst"}
!783 = !{!784, !786, !788}
!784 = distinct !{!784, !785, !"_ZL13x86_write_regP8x86_regs7x86_regm: %regs"}
!785 = distinct !{!785, !"_ZL13x86_write_regP8x86_regs7x86_regm"}
!786 = distinct !{!786, !787, !"_ZL13x86_write_regP8x86_regsPK9cs_x86_opm: %regs"}
!787 = distinct !{!787, !"_ZL13x86_write_regP8x86_regsPK9cs_x86_opm"}
!788 = distinct !{!788, !789, !"_ZL29x86_write_destination_operandPK9cs_x86_opP8x86_regsm: %regs"}
!789 = distinct !{!789, !"_ZL29x86_write_destination_operandPK9cs_x86_opP8x86_regsm"}
!790 = !{!791}
!791 = distinct !{!791, !789, !"_ZL29x86_write_destination_operandPK9cs_x86_opP8x86_regsm: %destination"}
!792 = !{!793, !795, !797, !799}
!793 = distinct !{!793, !794, !"_ZL13x86_write_regP8x86_regs7x86_regm: %regs"}
!794 = distinct !{!794, !"_ZL13x86_write_regP8x86_regs7x86_regm"}
!795 = distinct !{!795, !796, !"_ZL13x86_write_regP8x86_regsPK9cs_x86_opm: %regs"}
!796 = distinct !{!796, !"_ZL13x86_write_regP8x86_regsPK9cs_x86_opm"}
!797 = distinct !{!797, !798, !"_ZL29x86_write_destination_operandPK9cs_x86_opP8x86_regsm: %regs"}
!798 = distinct !{!798, !"_ZL29x86_write_destination_operandPK9cs_x86_opP8x86_regsm"}
!799 = distinct !{!799, !800, !"_ZL20x86_move_zero_extendP8x86_regsPK6cs_x86: %regs"}
!800 = distinct !{!800, !"_ZL20x86_move_zero_extendP8x86_regsPK6cs_x86"}
!801 = !{!802, !803}
!802 = distinct !{!802, !798, !"_ZL29x86_write_destination_operandPK9cs_x86_opP8x86_regsm: %destination"}
!803 = distinct !{!803, !800, !"_ZL20x86_move_zero_extendP8x86_regsPK6cs_x86: %inst"}
!804 = !{!805, !807, !809, !811}
!805 = distinct !{!805, !806, !"_ZL13x86_write_regP8x86_regs7x86_regm: %regs"}
!806 = distinct !{!806, !"_ZL13x86_write_regP8x86_regs7x86_regm"}
!807 = distinct !{!807, !808, !"_ZL13x86_write_regP8x86_regsPK9cs_x86_opm: %regs"}
!808 = distinct !{!808, !"_ZL13x86_write_regP8x86_regsPK9cs_x86_opm"}
!809 = distinct !{!809, !810, !"_ZL29x86_write_destination_operandPK9cs_x86_opP8x86_regsm: %regs"}
!810 = distinct !{!810, !"_ZL29x86_write_destination_operandPK9cs_x86_opP8x86_regsm"}
!811 = distinct !{!811, !812, !"_ZL20x86_move_zero_extendP8x86_regsPK6cs_x86: %regs"}
!812 = distinct !{!812, !"_ZL20x86_move_zero_extendP8x86_regsPK6cs_x86"}
!813 = !{!814, !815}
!814 = distinct !{!814, !810, !"_ZL29x86_write_destination_operandPK9cs_x86_opP8x86_regsm: %destination"}
!815 = distinct !{!815, !812, !"_ZL20x86_move_zero_extendP8x86_regsPK6cs_x86: %inst"}
!816 = !{!817, !819, !821, !823}
!817 = distinct !{!817, !818, !"_ZL13x86_write_regP8x86_regs7x86_regm: %regs"}
!818 = distinct !{!818, !"_ZL13x86_write_regP8x86_regs7x86_regm"}
!819 = distinct !{!819, !820, !"_ZL13x86_write_regP8x86_regsPK9cs_x86_opm: %regs"}
!820 = distinct !{!820, !"_ZL13x86_write_regP8x86_regsPK9cs_x86_opm"}
!821 = distinct !{!821, !822, !"_ZL29x86_write_destination_operandPK9cs_x86_opP8x86_regsm: %regs"}
!822 = distinct !{!822, !"_ZL29x86_write_destination_operandPK9cs_x86_opP8x86_regsm"}
!823 = distinct !{!823, !824, !"_ZL20x86_move_zero_extendP8x86_regsPK6cs_x86: %regs"}
!824 = distinct !{!824, !"_ZL20x86_move_zero_extendP8x86_regsPK6cs_x86"}
!825 = !{!826, !827}
!826 = distinct !{!826, !822, !"_ZL29x86_write_destination_operandPK9cs_x86_opP8x86_regsm: %destination"}
!827 = distinct !{!827, !824, !"_ZL20x86_move_zero_extendP8x86_regsPK6cs_x86: %inst"}
!828 = !{!829, !831, !833, !835, !837, !839}
!829 = distinct !{!829, !830, !"_ZL12x86_read_regPK8x86_regs7x86_reg: %regs"}
!830 = distinct !{!830, !"_ZL12x86_read_regPK8x86_regs7x86_reg"}
!831 = distinct !{!831, !832, !"_ZL12x86_read_regPK8x86_regsPK9cs_x86_op: %regs"}
!832 = distinct !{!832, !"_ZL12x86_read_regPK8x86_regsPK9cs_x86_op"}
!833 = distinct !{!833, !834, !"_ZL23x86_read_source_operandPK9cs_x86_opPK8x86_regs: %regs"}
!834 = distinct !{!834, !"_ZL23x86_read_source_operandPK9cs_x86_opPK8x86_regs"}
!835 = distinct !{!835, !836, !"_ZL20x86_move_zero_extendP8x86_regsPK6cs_x86: %regs"}
!836 = distinct !{!836, !"_ZL20x86_move_zero_extendP8x86_regsPK6cs_x86"}
!837 = distinct !{!837, !838, !"_ZL12x86_read_regPK8x86_regs7x86_reg: %regs"}
!838 = distinct !{!838, !"_ZL12x86_read_regPK8x86_regs7x86_reg"}
!839 = distinct !{!839, !840, !"_ZL25x86_get_effective_addressPK8x86_regsPK9cs_x86_op: %regs"}
!840 = distinct !{!840, !"_ZL25x86_get_effective_addressPK8x86_regsPK9cs_x86_op"}
!841 = !{}
!842 = !{!843, !845, !847, !835}
!843 = distinct !{!843, !844, !"_ZL13x86_write_regP8x86_regs7x86_regm: %regs"}
!844 = distinct !{!844, !"_ZL13x86_write_regP8x86_regs7x86_regm"}
!845 = distinct !{!845, !846, !"_ZL13x86_write_regP8x86_regsPK9cs_x86_opm: %regs"}
!846 = distinct !{!846, !"_ZL13x86_write_regP8x86_regsPK9cs_x86_opm"}
!847 = distinct !{!847, !848, !"_ZL29x86_write_destination_operandPK9cs_x86_opP8x86_regsm: %regs"}
!848 = distinct !{!848, !"_ZL29x86_write_destination_operandPK9cs_x86_opP8x86_regsm"}
!849 = !{!850, !851}
!850 = distinct !{!850, !848, !"_ZL29x86_write_destination_operandPK9cs_x86_opP8x86_regsm: %destination"}
!851 = distinct !{!851, !836, !"_ZL20x86_move_zero_extendP8x86_regsPK6cs_x86: %inst"}
!852 = !{!853, !855, !857}
!853 = distinct !{!853, !854, !"_ZL13x86_write_regP8x86_regs7x86_regm: %regs"}
!854 = distinct !{!854, !"_ZL13x86_write_regP8x86_regs7x86_regm"}
!855 = distinct !{!855, !856, !"_ZL13x86_write_regP8x86_regsPK9cs_x86_opm: %regs"}
!856 = distinct !{!856, !"_ZL13x86_write_regP8x86_regsPK9cs_x86_opm"}
!857 = distinct !{!857, !858, !"_ZL29x86_write_destination_operandPK9cs_x86_opP8x86_regsm: %regs"}
!858 = distinct !{!858, !"_ZL29x86_write_destination_operandPK9cs_x86_opP8x86_regsm"}
!859 = !{!860}
!860 = distinct !{!860, !858, !"_ZL29x86_write_destination_operandPK9cs_x86_opP8x86_regsm: %destination"}
!861 = !{!862, !864, !866}
!862 = distinct !{!862, !863, !"_ZL13x86_write_regP8x86_regs7x86_regm: %regs"}
!863 = distinct !{!863, !"_ZL13x86_write_regP8x86_regs7x86_regm"}
!864 = distinct !{!864, !865, !"_ZL13x86_write_regP8x86_regsPK9cs_x86_opm: %regs"}
!865 = distinct !{!865, !"_ZL13x86_write_regP8x86_regsPK9cs_x86_opm"}
!866 = distinct !{!866, !867, !"_ZL29x86_write_destination_operandPK9cs_x86_opP8x86_regsm: %regs"}
!867 = distinct !{!867, !"_ZL29x86_write_destination_operandPK9cs_x86_opP8x86_regsm"}
!868 = !{!869}
!869 = distinct !{!869, !867, !"_ZL29x86_write_destination_operandPK9cs_x86_opP8x86_regsm: %destination"}
!870 = !{!871, !873, !875, !877}
!871 = distinct !{!871, !872, !"_ZL13x86_write_regP8x86_regs7x86_regm: %regs"}
!872 = distinct !{!872, !"_ZL13x86_write_regP8x86_regs7x86_regm"}
!873 = distinct !{!873, !874, !"_ZL13x86_write_regP8x86_regsPK9cs_x86_opm: %regs"}
!874 = distinct !{!874, !"_ZL13x86_write_regP8x86_regsPK9cs_x86_opm"}
!875 = distinct !{!875, !876, !"_ZL29x86_write_destination_operandPK9cs_x86_opP8x86_regsm: %regs"}
!876 = distinct !{!876, !"_ZL29x86_write_destination_operandPK9cs_x86_opP8x86_regsm"}
!877 = distinct !{!877, !878, !"_ZL20x86_move_zero_extendP8x86_regsPK6cs_x86: %regs"}
!878 = distinct !{!878, !"_ZL20x86_move_zero_extendP8x86_regsPK6cs_x86"}
!879 = !{!880, !881}
!880 = distinct !{!880, !876, !"_ZL29x86_write_destination_operandPK9cs_x86_opP8x86_regsm: %destination"}
!881 = distinct !{!881, !878, !"_ZL20x86_move_zero_extendP8x86_regsPK6cs_x86: %inst"}
!882 = !{!883, !885, !887, !889}
!883 = distinct !{!883, !884, !"_ZL13x86_write_regP8x86_regs7x86_regm: %regs"}
!884 = distinct !{!884, !"_ZL13x86_write_regP8x86_regs7x86_regm"}
!885 = distinct !{!885, !886, !"_ZL13x86_write_regP8x86_regsPK9cs_x86_opm: %regs"}
!886 = distinct !{!886, !"_ZL13x86_write_regP8x86_regsPK9cs_x86_opm"}
!887 = distinct !{!887, !888, !"_ZL29x86_write_destination_operandPK9cs_x86_opP8x86_regsm: %regs"}
!888 = distinct !{!888, !"_ZL29x86_write_destination_operandPK9cs_x86_opP8x86_regsm"}
!889 = distinct !{!889, !890, !"_ZL20x86_move_zero_extendP8x86_regsPK6cs_x86: %regs"}
!890 = distinct !{!890, !"_ZL20x86_move_zero_extendP8x86_regsPK6cs_x86"}
!891 = !{!892, !893}
!892 = distinct !{!892, !888, !"_ZL29x86_write_destination_operandPK9cs_x86_opP8x86_regsm: %destination"}
!893 = distinct !{!893, !890, !"_ZL20x86_move_zero_extendP8x86_regsPK6cs_x86: %inst"}
!894 = !{!895, !897, !899, !901, !903}
!895 = distinct !{!895, !896, !"_ZL12x86_read_regPK8x86_regs7x86_reg: %regs"}
!896 = distinct !{!896, !"_ZL12x86_read_regPK8x86_regs7x86_reg"}
!897 = distinct !{!897, !898, !"_ZL25x86_get_effective_addressPK8x86_regsPK9cs_x86_op: %regs"}
!898 = distinct !{!898, !"_ZL25x86_get_effective_addressPK8x86_regsPK9cs_x86_op"}
!899 = distinct !{!899, !900, !"_ZL12x86_read_memPK8x86_regsPK9cs_x86_op: %regs"}
!900 = distinct !{!900, !"_ZL12x86_read_memPK8x86_regsPK9cs_x86_op"}
!901 = distinct !{!901, !902, !"_ZL23x86_read_source_operandPK9cs_x86_opPK8x86_regs: %regs"}
!902 = distinct !{!902, !"_ZL23x86_read_source_operandPK9cs_x86_opPK8x86_regs"}
!903 = distinct !{!903, !904, !"_ZL20x86_move_zero_extendP8x86_regsPK6cs_x86: %regs"}
!904 = distinct !{!904, !"_ZL20x86_move_zero_extendP8x86_regsPK6cs_x86"}
!905 = !{!906, !907, !908, !909}
!906 = distinct !{!906, !898, !"_ZL25x86_get_effective_addressPK8x86_regsPK9cs_x86_op: %op"}
!907 = distinct !{!907, !900, !"_ZL12x86_read_memPK8x86_regsPK9cs_x86_op: %op"}
!908 = distinct !{!908, !902, !"_ZL23x86_read_source_operandPK9cs_x86_opPK8x86_regs: %source"}
!909 = distinct !{!909, !904, !"_ZL20x86_move_zero_extendP8x86_regsPK6cs_x86: %inst"}
!910 = !{!911, !913, !915, !917, !919}
!911 = distinct !{!911, !912, !"_ZL12x86_read_regPK8x86_regs7x86_reg: %regs"}
!912 = distinct !{!912, !"_ZL12x86_read_regPK8x86_regs7x86_reg"}
!913 = distinct !{!913, !914, !"_ZL25x86_get_effective_addressPK8x86_regsPK9cs_x86_op: %regs"}
!914 = distinct !{!914, !"_ZL25x86_get_effective_addressPK8x86_regsPK9cs_x86_op"}
!915 = distinct !{!915, !916, !"_ZL12x86_read_memPK8x86_regsPK9cs_x86_op: %regs"}
!916 = distinct !{!916, !"_ZL12x86_read_memPK8x86_regsPK9cs_x86_op"}
!917 = distinct !{!917, !918, !"_ZL23x86_read_source_operandPK9cs_x86_opPK8x86_regs: %regs"}
!918 = distinct !{!918, !"_ZL23x86_read_source_operandPK9cs_x86_opPK8x86_regs"}
!919 = distinct !{!919, !920, !"_ZL20x86_logical_operatorIZ7x86_xorE3$_3EmP8x86_regsP13x86_flags_regPK6cs_x86OT_: %regs"}
!920 = distinct !{!920, !"_ZL20x86_logical_operatorIZ7x86_xorE3$_3EmP8x86_regsP13x86_flags_regPK6cs_x86OT_"}
!921 = !{!922, !923, !924, !925, !926}
!922 = distinct !{!922, !914, !"_ZL25x86_get_effective_addressPK8x86_regsPK9cs_x86_op: %op"}
!923 = distinct !{!923, !916, !"_ZL12x86_read_memPK8x86_regsPK9cs_x86_op: %op"}
!924 = distinct !{!924, !918, !"_ZL23x86_read_source_operandPK9cs_x86_opPK8x86_regs: %source"}
!925 = distinct !{!925, !920, !"_ZL20x86_logical_operatorIZ7x86_xorE3$_3EmP8x86_regsP13x86_flags_regPK6cs_x86OT_: %flags"}
!926 = distinct !{!926, !920, !"_ZL20x86_logical_operatorIZ7x86_xorE3$_3EmP8x86_regsP13x86_flags_regPK6cs_x86OT_: %inst"}
!927 = !{!928, !930, !932}
!928 = distinct !{!928, !929, !"_ZL13x86_write_regP8x86_regs7x86_regm: %regs"}
!929 = distinct !{!929, !"_ZL13x86_write_regP8x86_regs7x86_regm"}
!930 = distinct !{!930, !931, !"_ZL13x86_write_regP8x86_regsPK9cs_x86_opm: %regs"}
!931 = distinct !{!931, !"_ZL13x86_write_regP8x86_regsPK9cs_x86_opm"}
!932 = distinct !{!932, !933, !"_ZL29x86_write_destination_operandPK9cs_x86_opP8x86_regsm: %regs"}
!933 = distinct !{!933, !"_ZL29x86_write_destination_operandPK9cs_x86_opP8x86_regsm"}
!934 = !{!935}
!935 = distinct !{!935, !933, !"_ZL29x86_write_destination_operandPK9cs_x86_opP8x86_regsm: %destination"}
!936 = !{!937, !939}
!937 = distinct !{!937, !938, !"_ZL13x86_write_regP8x86_regs7x86_regm: %regs"}
!938 = distinct !{!938, !"_ZL13x86_write_regP8x86_regs7x86_regm"}
!939 = distinct !{!939, !940, !"_ZL13x86_pop_valuePK10x86_configP8x86_regsm: %regs"}
!940 = distinct !{!940, !"_ZL13x86_pop_valuePK10x86_configP8x86_regsm"}
!941 = !{!942}
!942 = distinct !{!942, !943, !"_ZL13x86_write_regP8x86_regs7x86_regm: %regs"}
!943 = distinct !{!943, !"_ZL13x86_write_regP8x86_regs7x86_regm"}
!944 = !{!945, !947, !949}
!945 = distinct !{!945, !946, !"_ZL12x86_read_regPK8x86_regs7x86_reg: %regs"}
!946 = distinct !{!946, !"_ZL12x86_read_regPK8x86_regs7x86_reg"}
!947 = distinct !{!947, !948, !"_ZL12x86_read_regPK8x86_regsPK9cs_x86_op: %regs"}
!948 = distinct !{!948, !"_ZL12x86_read_regPK8x86_regsPK9cs_x86_op"}
!949 = distinct !{!949, !950, !"_ZL28x86_read_destination_operandPK9cs_x86_opPK8x86_regs: %regs"}
!950 = distinct !{!950, !"_ZL28x86_read_destination_operandPK9cs_x86_opPK8x86_regs"}
!951 = !{!952}
!952 = distinct !{!952, !950, !"_ZL28x86_read_destination_operandPK9cs_x86_opPK8x86_regs: %destination"}
!953 = !{i64 4195584}
!954 = !{!"fgets"}
!955 = !{!956}
!956 = distinct !{!956, !957, !"_ZL12x86_read_regPK8x86_regs7x86_reg: %regs"}
!957 = distinct !{!957, !"_ZL12x86_read_regPK8x86_regs7x86_reg"}
!958 = !{!959, !961}
!959 = distinct !{!959, !960, !"_ZL12x86_read_regPK8x86_regs7x86_reg: %regs"}
!960 = distinct !{!960, !"_ZL12x86_read_regPK8x86_regs7x86_reg"}
!961 = distinct !{!961, !962, !"_ZL14x86_push_valuePK10x86_configP8x86_regsmm: %regs"}
!962 = distinct !{!962, !"_ZL14x86_push_valuePK10x86_configP8x86_regsmm"}
!963 = !{!964, !961}
!964 = distinct !{!964, !965, !"_ZL13x86_write_regP8x86_regs7x86_regm: %regs"}
!965 = distinct !{!965, !"_ZL13x86_write_regP8x86_regs7x86_regm"}
!966 = !{i64 4195536}
!967 = !{!"puts"}
!968 = !{!969}
!969 = distinct !{!969, !970, !"_ZL12x86_read_regPK8x86_regs7x86_reg: %regs"}
!970 = distinct !{!970, !"_ZL12x86_read_regPK8x86_regs7x86_reg"}
!971 = !{!972, !974}
!972 = distinct !{!972, !973, !"_ZL12x86_read_regPK8x86_regs7x86_reg: %regs"}
!973 = distinct !{!973, !"_ZL12x86_read_regPK8x86_regs7x86_reg"}
!974 = distinct !{!974, !975, !"_ZL14x86_push_valuePK10x86_configP8x86_regsmm: %regs"}
!975 = distinct !{!975, !"_ZL14x86_push_valuePK10x86_configP8x86_regsmm"}
!976 = !{!977, !974}
!977 = distinct !{!977, !978, !"_ZL13x86_write_regP8x86_regs7x86_regm: %regs"}
!978 = distinct !{!978, !"_ZL13x86_write_regP8x86_regs7x86_regm"}
!979 = !{i64 4195552}
!980 = !{!"__stack_chk_fail"}
!981 = !{!982}
!982 = distinct !{!982, !983, !"_ZL12x86_read_regPK8x86_regs7x86_reg: %regs"}
!983 = distinct !{!983, !"_ZL12x86_read_regPK8x86_regs7x86_reg"}
!984 = !{!985, !987}
!985 = distinct !{!985, !986, !"_ZL12x86_read_regPK8x86_regs7x86_reg: %regs"}
!986 = distinct !{!986, !"_ZL12x86_read_regPK8x86_regs7x86_reg"}
!987 = distinct !{!987, !988, !"_ZL14x86_push_valuePK10x86_configP8x86_regsmm: %regs"}
!988 = distinct !{!988, !"_ZL14x86_push_valuePK10x86_configP8x86_regsmm"}
!989 = !{!990, !987}
!990 = distinct !{!990, !991, !"_ZL13x86_write_regP8x86_regs7x86_regm: %regs"}
!991 = distinct !{!991, !"_ZL13x86_write_regP8x86_regs7x86_regm"}
!992 = !{i64 4195600}
!993 = !{!994}
!994 = distinct !{!994, !995, !"_ZL12x86_read_regPK8x86_regs7x86_reg: %regs"}
!995 = distinct !{!995, !"_ZL12x86_read_regPK8x86_regs7x86_reg"}
!996 = !{!997, !999}
!997 = distinct !{!997, !998, !"_ZL12x86_read_regPK8x86_regs7x86_reg: %regs"}
!998 = distinct !{!998, !"_ZL12x86_read_regPK8x86_regs7x86_reg"}
!999 = distinct !{!999, !1000, !"_ZL14x86_push_valuePK10x86_configP8x86_regsmm: %regs"}
!1000 = distinct !{!1000, !"_ZL14x86_push_valuePK10x86_configP8x86_regsmm"}
!1001 = !{!1002, !999}
!1002 = distinct !{!1002, !1003, !"_ZL13x86_write_regP8x86_regs7x86_regm: %regs"}
!1003 = distinct !{!1003, !"_ZL13x86_write_regP8x86_regs7x86_regm"}